                              1 ;--------------------------------------------------------
                              2 ; File Created by SDCC : free open source ANSI-C Compiler
                              3 ; Version 3.3.0 #8604 (May 11 2013) (MINGW32)
                              4 ; This file was generated Sun Sep 22 12:22:54 2013
                              5 ;--------------------------------------------------------
                              6 	.module ec25519
                              7 	.optsdcc -mz80
                              8 	
                              9 ;--------------------------------------------------------
                             10 ; Public variables in this module
                             11 ;--------------------------------------------------------
                             12 	.globl _comba_32
                             13 	.globl _muladd
                             14 	.globl _mod25519
                             15 	.globl _reduce25519
                             16 	.globl _mul38_33
                             17 	.globl _mul4_33
                             18 	.globl _add3332_33
                             19 	.globl _add0232_33
                             20 	.globl _add0132_33
                             21 	.globl _asm_sub3232_32
                             22 	.globl _cmp32
                             23 	.globl _main
                             24 	.globl _sbuf
                             25 	.globl _sk
                             26 	.globl _A32
                             27 	.globl _P32
                             28 	.globl _z2_100_0
                             29 	.globl _z2_50_0
                             30 	.globl _z2_20_0
                             31 	.globl _z2_10_0
                             32 	.globl _z2_5_0
                             33 	.globl _z11
                             34 	.globl _z9
                             35 	.globl _c
                             36 	.globl _b
                             37 	.globl _a
                             38 	.globl _t33
                             39 	.globl _txz
                             40 	.globl _tz2
                             41 	.globl _tx2
                             42 	.globl _zm
                             43 	.globl _xm
                             44 	.globl _zn
                             45 	.globl _xn
                             46 	.globl _print_crlf
                             47 	.globl _print_gfx
                             48 	.globl _print_cls
                             49 	.globl _print_char
                             50 	.globl _print_sbuf
                             51 	.globl _modmul
                             52 	.globl _ldr
                             53 	.globl _modadd
                             54 	.globl _modsub
                             55 	.globl _ecc_double
                             56 	.globl _ecc_add
                             57 	.globl _ecc_seqsmult
                             58 	.globl _recip
                             59 ;--------------------------------------------------------
                             60 ; special function registers
                             61 ;--------------------------------------------------------
                             62 ;--------------------------------------------------------
                             63 ; ram data
                             64 ;--------------------------------------------------------
                             65 	.area _DATA
   0000                      66 _xn::
   0000                      67 	.ds 32
   0020                      68 _zn::
   0020                      69 	.ds 32
   0040                      70 _xm::
   0040                      71 	.ds 32
   0060                      72 _zm::
   0060                      73 	.ds 32
   0080                      74 _tx2::
   0080                      75 	.ds 33
   00A1                      76 _tz2::
   00A1                      77 	.ds 33
   00C2                      78 _txz::
   00C2                      79 	.ds 33
   00E3                      80 _t33::
   00E3                      81 	.ds 33
   0104                      82 _a::
   0104                      83 	.ds 32
   0124                      84 _b::
   0124                      85 	.ds 32
   0144                      86 _c::
   0144                      87 	.ds 64
   0184                      88 _z9::
   0184                      89 	.ds 32
   01A4                      90 _z11::
   01A4                      91 	.ds 32
   01C4                      92 _z2_5_0::
   01C4                      93 	.ds 32
   01E4                      94 _z2_10_0::
   01E4                      95 	.ds 32
   0204                      96 _z2_20_0::
   0204                      97 	.ds 32
   0224                      98 _z2_50_0::
   0224                      99 	.ds 32
   0244                     100 _z2_100_0::
   0244                     101 	.ds 32
   0264                     102 _P32::
   0264                     103 	.ds 32
   0284                     104 _A32::
   0284                     105 	.ds 32
   02A4                     106 _sk::
   02A4                     107 	.ds 32
   02C4                     108 _sbuf::
   02C4                     109 	.ds 25
                            110 ;--------------------------------------------------------
                            111 ; ram data
                            112 ;--------------------------------------------------------
                            113 	.area _INITIALIZED
                            114 ;--------------------------------------------------------
                            115 ; absolute external ram data
                            116 ;--------------------------------------------------------
                            117 	.area _DABS (ABS)
                            118 ;--------------------------------------------------------
                            119 ; global & static initialisations
                            120 ;--------------------------------------------------------
                            121 	.area _HOME
                            122 	.area _GSINIT
                            123 	.area _GSFINAL
                            124 	.area _GSINIT
                            125 ;--------------------------------------------------------
                            126 ; Home
                            127 ;--------------------------------------------------------
                            128 	.area _HOME
                            129 	.area _HOME
                            130 ;--------------------------------------------------------
                            131 ; code
                            132 ;--------------------------------------------------------
                            133 	.area _CODE
                            134 ;ec25519.c:89: void main(){
                            135 ;	---------------------------------
                            136 ; Function main
                            137 ; ---------------------------------
   0000                     138 _main_start::
   0000                     139 _main:
                            140 ;ec25519.c:94: sbuf[i++]=67;
   0000 21rC4r02      [10]  141 	ld	hl,#_sbuf
   0003 36 43         [10]  142 	ld	(hl),#0x43
                            143 ;ec25519.c:95: sbuf[i++]= 117;
   0005 21rC5r02      [10]  144 	ld	hl,#(_sbuf + 0x0001)
   0008 36 75         [10]  145 	ld	(hl),#0x75
                            146 ;ec25519.c:96: sbuf[i++]= 114;
   000A 21rC6r02      [10]  147 	ld	hl,#(_sbuf + 0x0002)
   000D 36 72         [10]  148 	ld	(hl),#0x72
                            149 ;ec25519.c:97: sbuf[i++]= 118;
   000F 21rC7r02      [10]  150 	ld	hl,#(_sbuf + 0x0003)
   0012 36 76         [10]  151 	ld	(hl),#0x76
                            152 ;ec25519.c:98: sbuf[i++]= 101;
   0014 21rC8r02      [10]  153 	ld	hl,#(_sbuf + 0x0004)
   0017 36 65         [10]  154 	ld	(hl),#0x65
                            155 ;ec25519.c:99: sbuf[i++]= 50;
   0019 21rC9r02      [10]  156 	ld	hl,#(_sbuf + 0x0005)
   001C 36 32         [10]  157 	ld	(hl),#0x32
                            158 ;ec25519.c:100: sbuf[i++]= 53;
   001E 21rCAr02      [10]  159 	ld	hl,#(_sbuf + 0x0006)
   0021 36 35         [10]  160 	ld	(hl),#0x35
                            161 ;ec25519.c:101: sbuf[i++]= 53;
   0023 21rCBr02      [10]  162 	ld	hl,#(_sbuf + 0x0007)
   0026 36 35         [10]  163 	ld	(hl),#0x35
                            164 ;ec25519.c:102: sbuf[i++]= 49;
   0028 21rCCr02      [10]  165 	ld	hl,#(_sbuf + 0x0008)
   002B 36 31         [10]  166 	ld	(hl),#0x31
                            167 ;ec25519.c:103: sbuf[i++]= 57;
   002D 21rCDr02      [10]  168 	ld	hl,#(_sbuf + 0x0009)
   0030 36 39         [10]  169 	ld	(hl),#0x39
                            170 ;ec25519.c:104: sbuf[i++]= 32;
   0032 21rCEr02      [10]  171 	ld	hl,#(_sbuf + 0x000a)
   0035 36 20         [10]  172 	ld	(hl),#0x20
                            173 ;ec25519.c:105: sbuf[i++]= 83;
   0037 21rCFr02      [10]  174 	ld	hl,#(_sbuf + 0x000b)
   003A 36 53         [10]  175 	ld	(hl),#0x53
                            176 ;ec25519.c:106: sbuf[i++]= 99;
   003C 21rD0r02      [10]  177 	ld	hl,#(_sbuf + 0x000c)
   003F 36 63         [10]  178 	ld	(hl),#0x63
                            179 ;ec25519.c:107: sbuf[i++]= 97;
   0041 21rD1r02      [10]  180 	ld	hl,#(_sbuf + 0x000d)
   0044 36 61         [10]  181 	ld	(hl),#0x61
                            182 ;ec25519.c:108: sbuf[i++]= 108;
   0046 21rD2r02      [10]  183 	ld	hl,#(_sbuf + 0x000e)
   0049 36 6C         [10]  184 	ld	(hl),#0x6C
                            185 ;ec25519.c:109: sbuf[i++]= 97;
   004B 21rD3r02      [10]  186 	ld	hl,#(_sbuf + 0x000f)
   004E 36 61         [10]  187 	ld	(hl),#0x61
                            188 ;ec25519.c:110: sbuf[i++]= 114;
   0050 21rD4r02      [10]  189 	ld	hl,#(_sbuf + 0x0010)
   0053 36 72         [10]  190 	ld	(hl),#0x72
                            191 ;ec25519.c:111: sbuf[i++]= 32;
   0055 21rD5r02      [10]  192 	ld	hl,#(_sbuf + 0x0011)
   0058 36 20         [10]  193 	ld	(hl),#0x20
                            194 ;ec25519.c:112: sbuf[i++]= 77;
   005A 21rD6r02      [10]  195 	ld	hl,#(_sbuf + 0x0012)
   005D 36 4D         [10]  196 	ld	(hl),#0x4D
                            197 ;ec25519.c:113: sbuf[i++]= 117;
   005F 21rD7r02      [10]  198 	ld	hl,#(_sbuf + 0x0013)
   0062 36 75         [10]  199 	ld	(hl),#0x75
                            200 ;ec25519.c:114: sbuf[i++]= 108;
   0064 21rD8r02      [10]  201 	ld	hl,#(_sbuf + 0x0014)
   0067 36 6C         [10]  202 	ld	(hl),#0x6C
                            203 ;ec25519.c:115: sbuf[i++]= 116;
   0069 21rD9r02      [10]  204 	ld	hl,#(_sbuf + 0x0015)
   006C 36 74         [10]  205 	ld	(hl),#0x74
                            206 ;ec25519.c:116: sbuf[i++]= 46;
   006E 21rDAr02      [10]  207 	ld	hl,#(_sbuf + 0x0016)
   0071 36 2E         [10]  208 	ld	(hl),#0x2E
                            209 ;ec25519.c:117: sbuf[i++]= 32;
   0073 21rDBr02      [10]  210 	ld	hl,#(_sbuf + 0x0017)
   0076 36 20         [10]  211 	ld	(hl),#0x20
                            212 ;ec25519.c:118: sbuf[i++]=0;
   0078 21rDCr02      [10]  213 	ld	hl,#(_sbuf + 0x0018)
   007B 36 00         [10]  214 	ld	(hl),#0x00
                            215 ;ec25519.c:128: __endasm;
   007D E5            [11]  216 	push hl
   007E D5            [11]  217 	push de
   007F CD C9 01      [17]  218 	call 0x1c9 ; CLS
   0082 21 37 3C      [10]  219 	ld hl,#15415
   0085 3E 8C         [ 7]  220 	ld a,#140
   0087 77            [ 7]  221 	ld (hl),a
   0088 D1            [10]  222 	pop de
   0089 E1            [10]  223 	pop hl
                            224 ;ec25519.c:129: print_sbuf( );
   008A CDrCDr02      [17]  225 	call	_print_sbuf
                            226 ;ec25519.c:132: for( i=0; i<32; i++ ){
   008D 11r84r02      [10]  227 	ld	de,#_A32
   0090 0E 00         [ 7]  228 	ld	c,#0x00
   0092                     229 00105$:
                            230 ;ec25519.c:133: A32[i]=0; P32[i]=255;
   0092 69            [ 4]  231 	ld	l,c
   0093 26 00         [ 7]  232 	ld	h,#0x00
   0095 19            [11]  233 	add	hl,de
   0096 36 00         [10]  234 	ld	(hl),#0x00
   0098 21r64r02      [10]  235 	ld	hl,#_P32
   009B 06 00         [ 7]  236 	ld	b,#0x00
   009D 09            [11]  237 	add	hl, bc
   009E 36 FF         [10]  238 	ld	(hl),#0xFF
                            239 ;ec25519.c:132: for( i=0; i<32; i++ ){
   00A0 0C            [ 4]  240 	inc	c
   00A1 79            [ 4]  241 	ld	a,c
   00A2 D6 20         [ 7]  242 	sub	a, #0x20
   00A4 38 EC         [12]  243 	jr	C,00105$
                            244 ;ec25519.c:135: P32[0]=237; P32[31]=127;
   00A6 21r64r02      [10]  245 	ld	hl,#_P32
   00A9 36 ED         [10]  246 	ld	(hl),#0xED
   00AB 21r83r02      [10]  247 	ld	hl,#_P32 + 31
   00AE 36 7F         [10]  248 	ld	(hl),#0x7F
                            249 ;ec25519.c:136: A32[0]=6; A32[1]=109; A32[2]=7;
   00B0 3E 06         [ 7]  250 	ld	a,#0x06
   00B2 12            [ 7]  251 	ld	(de),a
   00B3 6B            [ 4]  252 	ld	l, e
   00B4 62            [ 4]  253 	ld	h, d
   00B5 23            [ 6]  254 	inc	hl
   00B6 36 6D         [10]  255 	ld	(hl),#0x6D
   00B8 EB            [ 4]  256 	ex	de,hl
   00B9 23            [ 6]  257 	inc	hl
   00BA 23            [ 6]  258 	inc	hl
   00BB 36 07         [10]  259 	ld	(hl),#0x07
                            260 ;ec25519.c:140: sk[i++]=0x77;
   00BD 11rA4r02      [10]  261 	ld	de,#_sk
   00C0 3E 77         [ 7]  262 	ld	a,#0x77
   00C2 12            [ 7]  263 	ld	(de),a
                            264 ;ec25519.c:141: sk[i++]=0x07;
   00C3 6B            [ 4]  265 	ld	l, e
   00C4 62            [ 4]  266 	ld	h, d
   00C5 23            [ 6]  267 	inc	hl
   00C6 36 07         [10]  268 	ld	(hl),#0x07
                            269 ;ec25519.c:142: sk[i++]=0x6d;
   00C8 21rA6r02      [10]  270 	ld	hl,#(_sk + 0x0002)
   00CB 36 6D         [10]  271 	ld	(hl),#0x6D
                            272 ;ec25519.c:143: sk[i++]=0x0a;
   00CD 21rA7r02      [10]  273 	ld	hl,#(_sk + 0x0003)
   00D0 36 0A         [10]  274 	ld	(hl),#0x0A
                            275 ;ec25519.c:144: sk[i++]=0x73;
   00D2 21rA8r02      [10]  276 	ld	hl,#(_sk + 0x0004)
   00D5 36 73         [10]  277 	ld	(hl),#0x73
                            278 ;ec25519.c:145: sk[i++]=0x18;
   00D7 21rA9r02      [10]  279 	ld	hl,#(_sk + 0x0005)
   00DA 36 18         [10]  280 	ld	(hl),#0x18
                            281 ;ec25519.c:146: sk[i++]=0xa5;
   00DC 21rAAr02      [10]  282 	ld	hl,#(_sk + 0x0006)
   00DF 36 A5         [10]  283 	ld	(hl),#0xA5
                            284 ;ec25519.c:147: sk[i++]=0x7d;
   00E1 21rABr02      [10]  285 	ld	hl,#(_sk + 0x0007)
   00E4 36 7D         [10]  286 	ld	(hl),#0x7D
                            287 ;ec25519.c:149: sk[i++]=0x3c;
   00E6 21rACr02      [10]  288 	ld	hl,#(_sk + 0x0008)
   00E9 36 3C         [10]  289 	ld	(hl),#0x3C
                            290 ;ec25519.c:150: sk[i++]=0x16;
   00EB 21rADr02      [10]  291 	ld	hl,#(_sk + 0x0009)
   00EE 36 16         [10]  292 	ld	(hl),#0x16
                            293 ;ec25519.c:151: sk[i++]=0xc1;
   00F0 21rAEr02      [10]  294 	ld	hl,#(_sk + 0x000a)
   00F3 36 C1         [10]  295 	ld	(hl),#0xC1
                            296 ;ec25519.c:152: sk[i++]=0x72;
   00F5 21rAFr02      [10]  297 	ld	hl,#(_sk + 0x000b)
   00F8 36 72         [10]  298 	ld	(hl),#0x72
                            299 ;ec25519.c:153: sk[i++]=0x51;
   00FA 21rB0r02      [10]  300 	ld	hl,#(_sk + 0x000c)
   00FD 36 51         [10]  301 	ld	(hl),#0x51
                            302 ;ec25519.c:154: sk[i++]=0xb2;
   00FF 21rB1r02      [10]  303 	ld	hl,#(_sk + 0x000d)
   0102 36 B2         [10]  304 	ld	(hl),#0xB2
                            305 ;ec25519.c:155: sk[i++]=0x66;
   0104 21rB2r02      [10]  306 	ld	hl,#(_sk + 0x000e)
   0107 36 66         [10]  307 	ld	(hl),#0x66
                            308 ;ec25519.c:156: sk[i++]=0x45;
   0109 21rB3r02      [10]  309 	ld	hl,#(_sk + 0x000f)
   010C 36 45         [10]  310 	ld	(hl),#0x45
                            311 ;ec25519.c:158: sk[i++]=0xdf;
   010E 21rB4r02      [10]  312 	ld	hl,#(_sk + 0x0010)
   0111 36 DF         [10]  313 	ld	(hl),#0xDF
                            314 ;ec25519.c:159: sk[i++]=0x4c;
   0113 21rB5r02      [10]  315 	ld	hl,#(_sk + 0x0011)
   0116 36 4C         [10]  316 	ld	(hl),#0x4C
                            317 ;ec25519.c:160: sk[i++]=0x2f;
   0118 21rB6r02      [10]  318 	ld	hl,#(_sk + 0x0012)
   011B 36 2F         [10]  319 	ld	(hl),#0x2F
                            320 ;ec25519.c:161: sk[i++]=0x87;
   011D 21rB7r02      [10]  321 	ld	hl,#(_sk + 0x0013)
   0120 36 87         [10]  322 	ld	(hl),#0x87
                            323 ;ec25519.c:162: sk[i++]=0xeb;
   0122 21rB8r02      [10]  324 	ld	hl,#(_sk + 0x0014)
   0125 36 EB         [10]  325 	ld	(hl),#0xEB
                            326 ;ec25519.c:163: sk[i++]=0xc0;
   0127 21rB9r02      [10]  327 	ld	hl,#(_sk + 0x0015)
   012A 36 C0         [10]  328 	ld	(hl),#0xC0
                            329 ;ec25519.c:164: sk[i++]=0x99;
   012C 21rBAr02      [10]  330 	ld	hl,#(_sk + 0x0016)
   012F 36 99         [10]  331 	ld	(hl),#0x99
                            332 ;ec25519.c:165: sk[i++]=0x2a;
   0131 21rBBr02      [10]  333 	ld	hl,#(_sk + 0x0017)
   0134 36 2A         [10]  334 	ld	(hl),#0x2A
                            335 ;ec25519.c:167: sk[i++]=0xb1;
   0136 21rBCr02      [10]  336 	ld	hl,#(_sk + 0x0018)
   0139 36 B1         [10]  337 	ld	(hl),#0xB1
                            338 ;ec25519.c:168: sk[i++]=0x77;
   013B 21rBDr02      [10]  339 	ld	hl,#(_sk + 0x0019)
   013E 36 77         [10]  340 	ld	(hl),#0x77
                            341 ;ec25519.c:169: sk[i++]=0xfb;
   0140 21rBEr02      [10]  342 	ld	hl,#(_sk + 0x001a)
   0143 36 FB         [10]  343 	ld	(hl),#0xFB
                            344 ;ec25519.c:170: sk[i++]=0xa5;
   0145 21rBFr02      [10]  345 	ld	hl,#(_sk + 0x001b)
   0148 36 A5         [10]  346 	ld	(hl),#0xA5
                            347 ;ec25519.c:171: sk[i++]=0x1d;
   014A 21rC0r02      [10]  348 	ld	hl,#(_sk + 0x001c)
   014D 36 1D         [10]  349 	ld	(hl),#0x1D
                            350 ;ec25519.c:172: sk[i++]=0xb9;
   014F 21rC1r02      [10]  351 	ld	hl,#(_sk + 0x001d)
   0152 36 B9         [10]  352 	ld	(hl),#0xB9
                            353 ;ec25519.c:173: sk[i++]=0x2c;
   0154 21rC2r02      [10]  354 	ld	hl,#(_sk + 0x001e)
   0157 36 2C         [10]  355 	ld	(hl),#0x2C
                            356 ;ec25519.c:174: sk[i++]=0x2a;
   0159 21 1F 00      [10]  357 	ld	hl,#0x001F
   015C 19            [11]  358 	add	hl,de
   015D 4D            [ 4]  359 	ld	c,l
   015E 44            [ 4]  360 	ld	b,h
   015F 36 2A         [10]  361 	ld	(hl),#0x2A
                            362 ;ec25519.c:176: sk[0]  &= 248;
   0161 1A            [ 7]  363 	ld	a,(de)
   0162 E6 F8         [ 7]  364 	and	a, #0xF8
   0164 12            [ 7]  365 	ld	(de),a
                            366 ;ec25519.c:177: sk[31] &= 127;
   0165 0A            [ 7]  367 	ld	a,(bc)
   0166 E6 7F         [ 7]  368 	and	a, #0x7F
   0168 02            [ 7]  369 	ld	(bc),a
                            370 ;ec25519.c:178: sk[31] |= 64;
   0169 CB F7         [ 8]  371 	set	6, a
   016B 02            [ 7]  372 	ld	(bc),a
                            373 ;ec25519.c:180: ecc_seqsmult( sk );
   016C D5            [11]  374 	push	de
   016D CDrB8r0C      [17]  375 	call	_ecc_seqsmult
   0170 F1            [10]  376 	pop	af
                            377 ;ec25519.c:183: sbuf[i++]=77;
   0171 21rC4r02      [10]  378 	ld	hl,#_sbuf
   0174 36 4D         [10]  379 	ld	(hl),#0x4D
                            380 ;ec25519.c:184: sbuf[i++]= 79;
   0176 21rC5r02      [10]  381 	ld	hl,#(_sbuf + 0x0001)
   0179 36 4F         [10]  382 	ld	(hl),#0x4F
                            383 ;ec25519.c:185: sbuf[i++]= 68;
   017B 21rC6r02      [10]  384 	ld	hl,#(_sbuf + 0x0002)
   017E 36 44         [10]  385 	ld	(hl),#0x44
                            386 ;ec25519.c:186: sbuf[i++]= 85;
   0180 21rC7r02      [10]  387 	ld	hl,#(_sbuf + 0x0003)
   0183 36 55         [10]  388 	ld	(hl),#0x55
                            389 ;ec25519.c:187: sbuf[i++]= 76;
   0185 21rC8r02      [10]  390 	ld	hl,#(_sbuf + 0x0004)
   0188 36 4C         [10]  391 	ld	(hl),#0x4C
                            392 ;ec25519.c:188: sbuf[i++]= 65;
   018A 21rC9r02      [10]  393 	ld	hl,#(_sbuf + 0x0005)
   018D 36 41         [10]  394 	ld	(hl),#0x41
                            395 ;ec25519.c:189: sbuf[i++]= 82;
   018F 21rCAr02      [10]  396 	ld	hl,#(_sbuf + 0x0006)
   0192 36 52         [10]  397 	ld	(hl),#0x52
                            398 ;ec25519.c:190: sbuf[i++]= 32;
   0194 21rCBr02      [10]  399 	ld	hl,#(_sbuf + 0x0007)
   0197 36 20         [10]  400 	ld	(hl),#0x20
                            401 ;ec25519.c:191: sbuf[i++]= 73;
   0199 21rCCr02      [10]  402 	ld	hl,#(_sbuf + 0x0008)
   019C 36 49         [10]  403 	ld	(hl),#0x49
                            404 ;ec25519.c:192: sbuf[i++]= 78;
   019E 21rCDr02      [10]  405 	ld	hl,#(_sbuf + 0x0009)
   01A1 36 4E         [10]  406 	ld	(hl),#0x4E
                            407 ;ec25519.c:193: sbuf[i++]= 86;
   01A3 21rCEr02      [10]  408 	ld	hl,#(_sbuf + 0x000a)
   01A6 36 56         [10]  409 	ld	(hl),#0x56
                            410 ;ec25519.c:194: sbuf[i++]= 69;
   01A8 21rCFr02      [10]  411 	ld	hl,#(_sbuf + 0x000b)
   01AB 36 45         [10]  412 	ld	(hl),#0x45
                            413 ;ec25519.c:195: sbuf[i++]= 82;
   01AD 21rD0r02      [10]  414 	ld	hl,#(_sbuf + 0x000c)
   01B0 36 52         [10]  415 	ld	(hl),#0x52
                            416 ;ec25519.c:196: sbuf[i++]= 83;
   01B2 21rD1r02      [10]  417 	ld	hl,#(_sbuf + 0x000d)
   01B5 36 53         [10]  418 	ld	(hl),#0x53
                            419 ;ec25519.c:197: sbuf[i++]= 73;
   01B7 21rD2r02      [10]  420 	ld	hl,#(_sbuf + 0x000e)
   01BA 36 49         [10]  421 	ld	(hl),#0x49
                            422 ;ec25519.c:198: sbuf[i++]= 79;
   01BC 21rD3r02      [10]  423 	ld	hl,#(_sbuf + 0x000f)
   01BF 36 4F         [10]  424 	ld	(hl),#0x4F
                            425 ;ec25519.c:199: sbuf[i++]= 78;
   01C1 21rD4r02      [10]  426 	ld	hl,#(_sbuf + 0x0010)
   01C4 36 4E         [10]  427 	ld	(hl),#0x4E
                            428 ;ec25519.c:200: sbuf[i++]= 32;
   01C6 21rD5r02      [10]  429 	ld	hl,#(_sbuf + 0x0011)
   01C9 36 20         [10]  430 	ld	(hl),#0x20
                            431 ;ec25519.c:201: sbuf[i++]= 79;
   01CB 21rD6r02      [10]  432 	ld	hl,#(_sbuf + 0x0012)
   01CE 36 4F         [10]  433 	ld	(hl),#0x4F
                            434 ;ec25519.c:202: sbuf[i++]= 70;
   01D0 21rD7r02      [10]  435 	ld	hl,#(_sbuf + 0x0013)
   01D3 36 46         [10]  436 	ld	(hl),#0x46
                            437 ;ec25519.c:203: sbuf[i++]= 32;
   01D5 21rD8r02      [10]  438 	ld	hl,#(_sbuf + 0x0014)
   01D8 36 20         [10]  439 	ld	(hl),#0x20
                            440 ;ec25519.c:204: sbuf[i++]= 90;
   01DA 21rD9r02      [10]  441 	ld	hl,#(_sbuf + 0x0015)
   01DD 36 5A         [10]  442 	ld	(hl),#0x5A
                            443 ;ec25519.c:205: sbuf[i++]= 32;
   01DF 21rDAr02      [10]  444 	ld	hl,#(_sbuf + 0x0016)
   01E2 36 20         [10]  445 	ld	(hl),#0x20
                            446 ;ec25519.c:206: sbuf[i++]= 32;
   01E4 21rDBr02      [10]  447 	ld	hl,#(_sbuf + 0x0017)
   01E7 36 20         [10]  448 	ld	(hl),#0x20
                            449 ;ec25519.c:207: sbuf[i++]= 0;
   01E9 21rDCr02      [10]  450 	ld	hl,#(_sbuf + 0x0018)
   01EC 36 00         [10]  451 	ld	(hl),#0x00
                            452 ;ec25519.c:208: print_sbuf( );
   01EE CDrCDr02      [17]  453 	call	_print_sbuf
                            454 ;ec25519.c:209: print_crlf();
   01F1 CDr95r02      [17]  455 	call	_print_crlf
                            456 ;ec25519.c:216: recip( zn, zm );
   01F4 21r20r00      [10]  457 	ld	hl,#_zn
   01F7 01r60r00      [10]  458 	ld	bc,#_zm
   01FA C5            [11]  459 	push	bc
   01FB E5            [11]  460 	push	hl
   01FC CDr89r15      [17]  461 	call	_recip
   01FF F1            [10]  462 	pop	af
   0200 F1            [10]  463 	pop	af
                            464 ;ec25519.c:217: mult( xn, zn, xm );
   0201 21r04r01      [10]  465 	ld	hl,#_a
   0204 01r20r00      [10]  466 	ld	bc,#_zn
   0207 C5            [11]  467 	push	bc
   0208 E5            [11]  468 	push	hl
   0209 CDr19r09      [17]  469 	call	_ldr
   020C F1            [10]  470 	pop	af
   020D F1            [10]  471 	pop	af
   020E 21r24r01      [10]  472 	ld	hl,#_b
   0211 01r40r00      [10]  473 	ld	bc,#_xm
   0214 C5            [11]  474 	push	bc
   0215 E5            [11]  475 	push	hl
   0216 CDr19r09      [17]  476 	call	_ldr
   0219 F1            [10]  477 	pop	af
   021A F1            [10]  478 	pop	af
   021B CDr13r09      [17]  479 	call	_modmul
   021E 21r00r00      [10]  480 	ld	hl,#_xn
   0221 01rE3r00      [10]  481 	ld	bc,#_t33
   0224 C5            [11]  482 	push	bc
   0225 E5            [11]  483 	push	hl
   0226 CDr19r09      [17]  484 	call	_ldr
   0229 F1            [10]  485 	pop	af
   022A F1            [10]  486 	pop	af
                            487 ;ec25519.c:225: sbuf[i++]='P';
   022B 21rC4r02      [10]  488 	ld	hl,#_sbuf
   022E 36 50         [10]  489 	ld	(hl),#0x50
                            490 ;ec25519.c:226: sbuf[i++]='u';
   0230 21rC5r02      [10]  491 	ld	hl,#(_sbuf + 0x0001)
   0233 36 75         [10]  492 	ld	(hl),#0x75
                            493 ;ec25519.c:227: sbuf[i++]='b';
   0235 21rC6r02      [10]  494 	ld	hl,#(_sbuf + 0x0002)
   0238 36 62         [10]  495 	ld	(hl),#0x62
                            496 ;ec25519.c:228: sbuf[i++]='l';
   023A 21rC7r02      [10]  497 	ld	hl,#(_sbuf + 0x0003)
   023D 36 6C         [10]  498 	ld	(hl),#0x6C
                            499 ;ec25519.c:229: sbuf[i++]='i';
   023F 21rC8r02      [10]  500 	ld	hl,#(_sbuf + 0x0004)
   0242 36 69         [10]  501 	ld	(hl),#0x69
                            502 ;ec25519.c:230: sbuf[i++]='c';
   0244 21rC9r02      [10]  503 	ld	hl,#(_sbuf + 0x0005)
   0247 36 63         [10]  504 	ld	(hl),#0x63
                            505 ;ec25519.c:231: sbuf[i++]=' ';
   0249 21rCAr02      [10]  506 	ld	hl,#(_sbuf + 0x0006)
   024C 36 20         [10]  507 	ld	(hl),#0x20
                            508 ;ec25519.c:232: sbuf[i++]='K';
   024E 21rCBr02      [10]  509 	ld	hl,#(_sbuf + 0x0007)
   0251 36 4B         [10]  510 	ld	(hl),#0x4B
                            511 ;ec25519.c:233: sbuf[i++]='e';
   0253 21rCCr02      [10]  512 	ld	hl,#(_sbuf + 0x0008)
   0256 36 65         [10]  513 	ld	(hl),#0x65
                            514 ;ec25519.c:234: sbuf[i++]='y';
   0258 21rCDr02      [10]  515 	ld	hl,#(_sbuf + 0x0009)
   025B 36 79         [10]  516 	ld	(hl),#0x79
                            517 ;ec25519.c:235: sbuf[i++]=':';
   025D 21rCEr02      [10]  518 	ld	hl,#(_sbuf + 0x000a)
   0260 36 3A         [10]  519 	ld	(hl),#0x3A
                            520 ;ec25519.c:236: sbuf[i++]=0;
   0262 21rCFr02      [10]  521 	ld	hl,#(_sbuf + 0x000b)
   0265 36 00         [10]  522 	ld	(hl),#0x00
                            523 ;ec25519.c:237: print_sbuf( );
   0267 CDrCDr02      [17]  524 	call	_print_sbuf
                            525 ;ec25519.c:239: for( i=0; i<32; i++ ){
   026A 1E 00         [ 7]  526 	ld	e,#0x00
   026C                     527 00107$:
                            528 ;ec25519.c:240: if( 0==i%8 ) print_crlf();
   026C 7B            [ 4]  529 	ld	a,e
   026D E6 07         [ 7]  530 	and	a, #0x07
   026F 20 05         [12]  531 	jr	NZ,00103$
   0271 D5            [11]  532 	push	de
   0272 CDr95r02      [17]  533 	call	_print_crlf
   0275 D1            [10]  534 	pop	de
   0276                     535 00103$:
                            536 ;ec25519.c:241: print_char( xn[i] );
   0276 21r00r00      [10]  537 	ld	hl,#_xn
   0279 16 00         [ 7]  538 	ld	d,#0x00
   027B 19            [11]  539 	add	hl, de
   027C 66            [ 7]  540 	ld	h,(hl)
   027D D5            [11]  541 	push	de
   027E E5            [11]  542 	push	hl
   027F 33            [ 6]  543 	inc	sp
   0280 CDrACr02      [17]  544 	call	_print_char
   0283 33            [ 6]  545 	inc	sp
   0284 D1            [10]  546 	pop	de
                            547 ;ec25519.c:239: for( i=0; i<32; i++ ){
   0285 1C            [ 4]  548 	inc	e
   0286 7B            [ 4]  549 	ld	a,e
   0287 D6 20         [ 7]  550 	sub	a, #0x20
   0289 38 E1         [12]  551 	jr	C,00107$
                            552 ;ec25519.c:249: __endasm;
   028B 3E 0D         [ 7]  553 	ld a,#0x0d ; CR
   028D CD 33 00      [17]  554 	call 0x33 ; Print it
   0290 21 CC 06      [10]  555 	ld hl,#0x6cc ; BASIC command line
   0293 E9            [ 4]  556 	jp (hl)
   0294 C9            [10]  557 	ret
   0295                     558 _main_end::
                            559 ;ec25519.c:257: void print_crlf(){
                            560 ;	---------------------------------
                            561 ; Function print_crlf
                            562 ; ---------------------------------
   0295                     563 _print_crlf_start::
   0295                     564 _print_crlf:
                            565 ;ec25519.c:261: __endasm;
   0295 3E 0D         [ 7]  566 	ld a,#0x0d ; CR
   0297 CD 33 00      [17]  567 	call 0x33 ; Print it
                            568 ;ec25519.c:262: return;
   029A C9            [10]  569 	ret
   029B                     570 _print_crlf_end::
                            571 ;ec25519.c:266: void print_gfx( unsigned char gc ){
                            572 ;	---------------------------------
                            573 ; Function print_gfx
                            574 ; ---------------------------------
   029B                     575 _print_gfx_start::
   029B                     576 _print_gfx:
                            577 ;ec25519.c:273: __endasm;
   029B FD 21 02 00   [14]  578 	ld iy,#2
   029F FD 39         [15]  579 	add iy,sp ; first arg is at sp+2
   02A1 FD 7E 00      [19]  580 	ld a,0(iy) ; arg c in hl
   02A4 CD 33 00      [17]  581 	call 0x33 ; Print it
                            582 ;ec25519.c:274: return;
   02A7 C9            [10]  583 	ret
   02A8                     584 _print_gfx_end::
                            585 ;ec25519.c:278: void print_cls(){
                            586 ;	---------------------------------
                            587 ; Function print_cls
                            588 ; ---------------------------------
   02A8                     589 _print_cls_start::
   02A8                     590 _print_cls:
                            591 ;ec25519.c:281: __endasm;
   02A8 CD C9 01      [17]  592 	call 0x1c9 ; CLS
                            593 ;ec25519.c:282: return;
   02AB C9            [10]  594 	ret
   02AC                     595 _print_cls_end::
                            596 ;ec25519.c:287: void print_char(unsigned char c ){
                            597 ;	---------------------------------
                            598 ; Function print_char
                            599 ; ---------------------------------
   02AC                     600 _print_char_start::
   02AC                     601 _print_char:
                            602 ;ec25519.c:302: __endasm;
   02AC FD 21 02 00   [14]  603 	ld iy,#2
   02B0 FD 39         [15]  604 	add iy,sp ; first arg is at sp+2
   02B2 FD 6E 00      [19]  605 	ld l,0(iy) ; arg c in hl
   02B5 26 00         [ 7]  606 	ld h,#0
   02B7 CD 9A 0A      [17]  607 	call #0x0a9a ; move HL to ACC
   02BA 21rC4r02      [10]  608 	ld hl,#_sbuf + 0 ; buffer for ASCII conversion
   02BD CD BD 0F      [17]  609 	call #0x0fbd ; ACC to ASCII string
   02C0 AF            [ 4]  610 	xor a
   02C1 32 9C 40      [13]  611 	ld (#0x409c),a ; video=0
   02C4 CD A7 28      [17]  612 	call #0x28a7 ; print string at cursor
   02C7 3E 20         [ 7]  613 	ld a,#0x20 ; space=0x20h
   02C9 CD 33 00      [17]  614 	call 0x33 ; print it
                            615 ;ec25519.c:303: return;
   02CC C9            [10]  616 	ret
   02CD                     617 _print_char_end::
                            618 ;ec25519.c:306: void print_sbuf(){
                            619 ;	---------------------------------
                            620 ; Function print_sbuf
                            621 ; ---------------------------------
   02CD                     622 _print_sbuf_start::
   02CD                     623 _print_sbuf:
                            624 ;ec25519.c:313: __endasm;
   02CD 21rC4r02      [10]  625 	ld hl,#_sbuf + 0 ; buffer for ASCII message
   02D0 AF            [ 4]  626 	xor a
   02D1 32 9C 40      [13]  627 	ld (#0x409c),a ; video=0
   02D4 CD A7 28      [17]  628 	call #0x28a7 ; print string at cursor
   02D7 C9            [10]  629 	ret
                            630 ;ec25519.c:314: sbuf;
   02D8 C9            [10]  631 	ret
   02D9                     632 _print_sbuf_end::
                            633 ;ec25519.c:319: char cmp32( unsigned char *u, unsigned char *v ){
                            634 ;	---------------------------------
                            635 ; Function cmp32
                            636 ; ---------------------------------
   02D9                     637 _cmp32_start::
   02D9                     638 _cmp32:
   02D9 F5            [11]  639 	push	af
                            640 ;ec25519.c:321: for( j=0; j<32; j++ ){
   02DA 1E 00         [ 7]  641 	ld	e,#0x00
   02DC                     642 00106$:
                            643 ;ec25519.c:322: i = 31-j;
   02DC 21 00 00      [10]  644 	ld	hl,#0
   02DF 39            [11]  645 	add	hl,sp
   02E0 3E 1F         [ 7]  646 	ld	a,#0x1F
   02E2 93            [ 4]  647 	sub	a, e
   02E3 77            [ 7]  648 	ld	(hl),a
                            649 ;ec25519.c:323: if( u[i]<v[i] ) return -1;
   02E4 21 00 00      [10]  650 	ld	hl,#0
   02E7 39            [11]  651 	add	hl,sp
   02E8 FD 21 04 00   [14]  652 	ld	iy,#4
   02EC FD 39         [15]  653 	add	iy,sp
   02EE FD 7E 00      [19]  654 	ld	a,0 (iy)
   02F1 86            [ 7]  655 	add	a, (hl)
   02F2 4F            [ 4]  656 	ld	c,a
   02F3 FD 7E 01      [19]  657 	ld	a,1 (iy)
   02F6 CE 00         [ 7]  658 	adc	a, #0x00
   02F8 47            [ 4]  659 	ld	b,a
   02F9 0A            [ 7]  660 	ld	a,(bc)
   02FA FD 21 01 00   [14]  661 	ld	iy,#1
   02FE FD 39         [15]  662 	add	iy,sp
   0300 FD 77 00      [19]  663 	ld	0 (iy),a
   0303 21 00 00      [10]  664 	ld	hl,#0
   0306 39            [11]  665 	add	hl,sp
   0307 FD 21 06 00   [14]  666 	ld	iy,#6
   030B FD 39         [15]  667 	add	iy,sp
   030D FD 7E 00      [19]  668 	ld	a,0 (iy)
   0310 86            [ 7]  669 	add	a, (hl)
   0311 4F            [ 4]  670 	ld	c,a
   0312 FD 7E 01      [19]  671 	ld	a,1 (iy)
   0315 CE 00         [ 7]  672 	adc	a, #0x00
   0317 47            [ 4]  673 	ld	b,a
   0318 0A            [ 7]  674 	ld	a,(bc)
   0319 57            [ 4]  675 	ld	d,a
   031A 21 01 00      [10]  676 	ld	hl, #1+0
   031D 39            [11]  677 	add	hl, sp
   031E 7E            [ 7]  678 	ld	a, (hl)
   031F 92            [ 4]  679 	sub	a, d
   0320 30 04         [12]  680 	jr	NC,00102$
   0322 2E FF         [ 7]  681 	ld	l,#0xFF
   0324 18 18         [12]  682 	jr	00108$
   0326                     683 00102$:
                            684 ;ec25519.c:324: if( u[i]>v[i] ) return  1;
   0326 7A            [ 4]  685 	ld	a,d
   0327 FD 21 01 00   [14]  686 	ld	iy,#1
   032B FD 39         [15]  687 	add	iy,sp
   032D FD 96 00      [19]  688 	sub	a, 0 (iy)
   0330 30 04         [12]  689 	jr	NC,00107$
   0332 2E 01         [ 7]  690 	ld	l,#0x01
   0334 18 08         [12]  691 	jr	00108$
   0336                     692 00107$:
                            693 ;ec25519.c:321: for( j=0; j<32; j++ ){
   0336 1C            [ 4]  694 	inc	e
   0337 7B            [ 4]  695 	ld	a,e
   0338 D6 20         [ 7]  696 	sub	a, #0x20
   033A 38 A0         [12]  697 	jr	C,00106$
                            698 ;ec25519.c:326: return 0;
   033C 2E 00         [ 7]  699 	ld	l,#0x00
   033E                     700 00108$:
   033E F1            [10]  701 	pop	af
   033F C9            [10]  702 	ret
   0340                     703 _cmp32_end::
                            704 ;ec25519.c:333: void asm_sub3232_32( unsigned char *u, unsigned char *v ){
                            705 ;	---------------------------------
                            706 ; Function asm_sub3232_32
                            707 ; ---------------------------------
   0340                     708 _asm_sub3232_32_start::
   0340                     709 _asm_sub3232_32:
                            710 ;ec25519.c:360: __endasm;
   0340 DD E5         [15]  711 	push ix
   0342 DD 21 00 00   [14]  712 	ld ix,#0
   0346 DD 39         [15]  713 	add ix,sp
   0348 F5            [11]  714 	push af
   0349 3B            [ 6]  715 	dec sp
   034A E5            [11]  716 	push hl
   034B D5            [11]  717 	push de
   034C DD 5E 04      [19]  718 	ld e,4(ix)
   034F DD 56 05      [19]  719 	ld d,5(ix)
   0352 DD 6E 06      [19]  720 	ld l,6(ix)
   0355 DD 66 07      [19]  721 	ld h,7(ix)
   0358 06 20         [ 7]  722 	ld b,#32
   035A B7            [ 4]  723 	or a
   035B                     724 	00001$:
   035B 1A            [ 7]  725 	ld a,(de)
   035C 9E            [ 7]  726 	sbc a,(hl)
   035D 12            [ 7]  727 	ld (de),a
   035E 23            [ 6]  728 	inc hl
   035F 13            [ 6]  729 	inc de
   0360 10 F9         [13]  730 	djnz 00001$
   0362 D1            [10]  731 	pop de
   0363 E1            [10]  732 	pop hl
   0364 F1            [10]  733 	pop af
   0365 DD F9         [10]  734 	ld sp,ix
   0367 DD E1         [14]  735 	pop ix
   0369 C9            [10]  736 	ret
                            737 ;ec25519.c:361: u; v;
   036A C9            [10]  738 	ret
   036B                     739 _asm_sub3232_32_end::
                            740 ;ec25519.c:365: void add0132_33( unsigned char *t, unsigned char k, unsigned char *u ){
                            741 ;	---------------------------------
                            742 ; Function add0132_33
                            743 ; ---------------------------------
   036B                     744 _add0132_33_start::
   036B                     745 _add0132_33:
   036B DD E5         [15]  746 	push	ix
   036D DD 21 00 00   [14]  747 	ld	ix,#0
   0371 DD 39         [15]  748 	add	ix,sp
   0373 F5            [11]  749 	push	af
                            750 ;ec25519.c:368: carry = 0;
   0374 01 00 00      [10]  751 	ld	bc,#0x0000
                            752 ;ec25519.c:369: for( i=0; i<32; i++ ){
   0377 1E 00         [ 7]  753 	ld	e,#0x00
   0379                     754 00104$:
                            755 ;ec25519.c:370: if( 0==i ){ carry += k; }
   0379 7B            [ 4]  756 	ld	a,e
   037A B7            [ 4]  757 	or	a, a
   037B 20 08         [12]  758 	jr	NZ,00102$
   037D DD 6E 06      [19]  759 	ld	l,6 (ix)
   0380 26 00         [ 7]  760 	ld	h,#0x00
   0382 09            [11]  761 	add	hl,bc
   0383 4D            [ 4]  762 	ld	c,l
   0384 44            [ 4]  763 	ld	b,h
   0385                     764 00102$:
                            765 ;ec25519.c:371: carry += u[i];
   0385 DD 6E 07      [19]  766 	ld	l,7 (ix)
   0388 DD 66 08      [19]  767 	ld	h,8 (ix)
   038B 16 00         [ 7]  768 	ld	d,#0x00
   038D 19            [11]  769 	add	hl, de
   038E 6E            [ 7]  770 	ld	l,(hl)
   038F 26 00         [ 7]  771 	ld	h,#0x00
   0391 09            [11]  772 	add	hl,bc
   0392 4D            [ 4]  773 	ld	c,l
   0393 44            [ 4]  774 	ld	b,h
                            775 ;ec25519.c:372: t[i]  = (carry%256);
   0394 DD 6E 04      [19]  776 	ld	l,4 (ix)
   0397 DD 66 05      [19]  777 	ld	h,5 (ix)
   039A 16 00         [ 7]  778 	ld	d,#0x00
   039C 19            [11]  779 	add	hl, de
   039D DD 71 FE      [19]  780 	ld	-2 (ix),c
   03A0 DD 36 FF 00   [19]  781 	ld	-1 (ix),#0x00
   03A4 DD 7E FE      [19]  782 	ld	a,-2 (ix)
   03A7 77            [ 7]  783 	ld	(hl),a
                            784 ;ec25519.c:373: carry >>= 8;
   03A8 48            [ 4]  785 	ld	c,b
   03A9 06 00         [ 7]  786 	ld	b,#0x00
                            787 ;ec25519.c:369: for( i=0; i<32; i++ ){
   03AB 1C            [ 4]  788 	inc	e
   03AC 7B            [ 4]  789 	ld	a,e
   03AD D6 20         [ 7]  790 	sub	a, #0x20
   03AF 38 C8         [12]  791 	jr	C,00104$
                            792 ;ec25519.c:376: t[32] = (unsigned char)carry;
   03B1 DD 7E 04      [19]  793 	ld	a,4 (ix)
   03B4 C6 20         [ 7]  794 	add	a, #0x20
   03B6 6F            [ 4]  795 	ld	l,a
   03B7 DD 7E 05      [19]  796 	ld	a,5 (ix)
   03BA CE 00         [ 7]  797 	adc	a, #0x00
   03BC 67            [ 4]  798 	ld	h,a
   03BD 71            [ 7]  799 	ld	(hl),c
                            800 ;ec25519.c:377: return;
   03BE DD F9         [10]  801 	ld	sp,ix
   03C0 DD E1         [14]  802 	pop	ix
   03C2 C9            [10]  803 	ret
   03C3                     804 _add0132_33_end::
                            805 ;ec25519.c:381: void add0232_33( unsigned char *t, unsigned int k, unsigned char *u ){
                            806 ;	---------------------------------
                            807 ; Function add0232_33
                            808 ; ---------------------------------
   03C3                     809 _add0232_33_start::
   03C3                     810 _add0232_33:
   03C3 DD E5         [15]  811 	push	ix
   03C5 DD 21 00 00   [14]  812 	ld	ix,#0
   03C9 DD 39         [15]  813 	add	ix,sp
   03CB 21 FB FF      [10]  814 	ld	hl,#-5
   03CE 39            [11]  815 	add	hl,sp
   03CF F9            [ 6]  816 	ld	sp,hl
                            817 ;ec25519.c:384: carry = 0;
   03D0 01 00 00      [10]  818 	ld	bc,#0x0000
                            819 ;ec25519.c:385: for( i=0; i<32; i++ ){
   03D3 DD 5E 06      [19]  820 	ld	e,6 (ix)
   03D6 16 00         [ 7]  821 	ld	d,#0x00
   03D8 DD 66 07      [19]  822 	ld	h,7 (ix)
   03DB DD 74 FE      [19]  823 	ld	-2 (ix),h
   03DE DD 36 FF 00   [19]  824 	ld	-1 (ix),#0x00
   03E2 DD 36 FB 00   [19]  825 	ld	-5 (ix),#0x00
   03E6                     826 00106$:
                            827 ;ec25519.c:386: if( 0==i ){ carry += (k%256); }
   03E6 DD 7E FB      [19]  828 	ld	a,-5 (ix)
   03E9 B7            [ 4]  829 	or	a, a
   03EA 20 06         [12]  830 	jr	NZ,00102$
   03EC 79            [ 4]  831 	ld	a,c
   03ED 83            [ 4]  832 	add	a, e
   03EE 4F            [ 4]  833 	ld	c,a
   03EF 78            [ 4]  834 	ld	a,b
   03F0 8A            [ 4]  835 	adc	a, d
   03F1 47            [ 4]  836 	ld	b,a
   03F2                     837 00102$:
                            838 ;ec25519.c:387: if( 1==i ){ carry += ((k>>8)%256); }
   03F2 DD 7E FB      [19]  839 	ld	a,-5 (ix)
   03F5 3D            [ 4]  840 	dec	a
   03F6 20 0A         [12]  841 	jr	NZ,00104$
   03F8 79            [ 4]  842 	ld	a,c
   03F9 DD 86 FE      [19]  843 	add	a, -2 (ix)
   03FC 4F            [ 4]  844 	ld	c,a
   03FD 78            [ 4]  845 	ld	a,b
   03FE DD 8E FF      [19]  846 	adc	a, -1 (ix)
   0401 47            [ 4]  847 	ld	b,a
   0402                     848 00104$:
                            849 ;ec25519.c:388: carry += u[i];
   0402 DD 7E 08      [19]  850 	ld	a,8 (ix)
   0405 DD 86 FB      [19]  851 	add	a, -5 (ix)
   0408 6F            [ 4]  852 	ld	l,a
   0409 DD 7E 09      [19]  853 	ld	a,9 (ix)
   040C CE 00         [ 7]  854 	adc	a, #0x00
   040E 67            [ 4]  855 	ld	h,a
   040F 6E            [ 7]  856 	ld	l,(hl)
   0410 26 00         [ 7]  857 	ld	h,#0x00
   0412 09            [11]  858 	add	hl,bc
   0413 4D            [ 4]  859 	ld	c,l
   0414 44            [ 4]  860 	ld	b,h
                            861 ;ec25519.c:389: t[i]  = (carry%256);
   0415 DD 7E 04      [19]  862 	ld	a,4 (ix)
   0418 DD 86 FB      [19]  863 	add	a, -5 (ix)
   041B 6F            [ 4]  864 	ld	l,a
   041C DD 7E 05      [19]  865 	ld	a,5 (ix)
   041F CE 00         [ 7]  866 	adc	a, #0x00
   0421 67            [ 4]  867 	ld	h,a
   0422 DD 71 FC      [19]  868 	ld	-4 (ix),c
   0425 DD 36 FD 00   [19]  869 	ld	-3 (ix),#0x00
   0429 DD 7E FC      [19]  870 	ld	a,-4 (ix)
   042C 77            [ 7]  871 	ld	(hl),a
                            872 ;ec25519.c:390: carry >>= 8;
   042D 48            [ 4]  873 	ld	c,b
   042E 06 00         [ 7]  874 	ld	b,#0x00
                            875 ;ec25519.c:385: for( i=0; i<32; i++ ){
   0430 DD 34 FB      [23]  876 	inc	-5 (ix)
   0433 DD 7E FB      [19]  877 	ld	a,-5 (ix)
   0436 D6 20         [ 7]  878 	sub	a, #0x20
   0438 38 AC         [12]  879 	jr	C,00106$
                            880 ;ec25519.c:393: t[32] = (unsigned char)carry;
   043A DD 7E 04      [19]  881 	ld	a,4 (ix)
   043D C6 20         [ 7]  882 	add	a, #0x20
   043F 6F            [ 4]  883 	ld	l,a
   0440 DD 7E 05      [19]  884 	ld	a,5 (ix)
   0443 CE 00         [ 7]  885 	adc	a, #0x00
   0445 67            [ 4]  886 	ld	h,a
   0446 71            [ 7]  887 	ld	(hl),c
                            888 ;ec25519.c:394: return;
   0447 DD F9         [10]  889 	ld	sp,ix
   0449 DD E1         [14]  890 	pop	ix
   044B C9            [10]  891 	ret
   044C                     892 _add0232_33_end::
                            893 ;ec25519.c:398: void add3332_33( unsigned char *t, unsigned char *u ){
                            894 ;	---------------------------------
                            895 ; Function add3332_33
                            896 ; ---------------------------------
   044C                     897 _add3332_33_start::
   044C                     898 _add3332_33:
   044C DD E5         [15]  899 	push	ix
   044E DD 21 00 00   [14]  900 	ld	ix,#0
   0452 DD 39         [15]  901 	add	ix,sp
   0454 F5            [11]  902 	push	af
   0455 3B            [ 6]  903 	dec	sp
                            904 ;ec25519.c:401: carry = 0;
   0456 01 00 00      [10]  905 	ld	bc,#0x0000
                            906 ;ec25519.c:402: for( i=0; i<32; i++ ){
   0459 DD 36 FD 00   [19]  907 	ld	-3 (ix),#0x00
   045D                     908 00102$:
                            909 ;ec25519.c:403: carry += t[i]+u[i];
   045D DD 7E 04      [19]  910 	ld	a,4 (ix)
   0460 DD 86 FD      [19]  911 	add	a, -3 (ix)
   0463 5F            [ 4]  912 	ld	e,a
   0464 DD 7E 05      [19]  913 	ld	a,5 (ix)
   0467 CE 00         [ 7]  914 	adc	a, #0x00
   0469 57            [ 4]  915 	ld	d,a
   046A 1A            [ 7]  916 	ld	a,(de)
   046B DD 77 FE      [19]  917 	ld	-2 (ix),a
   046E DD 36 FF 00   [19]  918 	ld	-1 (ix),#0x00
   0472 DD 7E 06      [19]  919 	ld	a,6 (ix)
   0475 DD 86 FD      [19]  920 	add	a, -3 (ix)
   0478 6F            [ 4]  921 	ld	l,a
   0479 DD 7E 07      [19]  922 	ld	a,7 (ix)
   047C CE 00         [ 7]  923 	adc	a, #0x00
   047E 67            [ 4]  924 	ld	h,a
   047F 6E            [ 7]  925 	ld	l,(hl)
   0480 26 00         [ 7]  926 	ld	h,#0x00
   0482 DD 7E FE      [19]  927 	ld	a,-2 (ix)
   0485 85            [ 4]  928 	add	a, l
   0486 6F            [ 4]  929 	ld	l,a
   0487 DD 7E FF      [19]  930 	ld	a,-1 (ix)
   048A 8C            [ 4]  931 	adc	a, h
   048B 67            [ 4]  932 	ld	h,a
   048C 09            [11]  933 	add	hl,bc
   048D 4D            [ 4]  934 	ld	c,l
   048E 44            [ 4]  935 	ld	b,h
                            936 ;ec25519.c:404: t[i]  = (carry%256);
   048F 79            [ 4]  937 	ld	a, c
   0490 12            [ 7]  938 	ld	(de),a
                            939 ;ec25519.c:405: carry >>= 8;
   0491 48            [ 4]  940 	ld	c,b
   0492 06 00         [ 7]  941 	ld	b,#0x00
                            942 ;ec25519.c:402: for( i=0; i<32; i++ ){
   0494 DD 34 FD      [23]  943 	inc	-3 (ix)
   0497 DD 7E FD      [19]  944 	ld	a,-3 (ix)
   049A D6 20         [ 7]  945 	sub	a, #0x20
   049C 38 BF         [12]  946 	jr	C,00102$
                            947 ;ec25519.c:407: t[32] += (unsigned char)carry;
   049E DD 7E 04      [19]  948 	ld	a,4 (ix)
   04A1 C6 20         [ 7]  949 	add	a, #0x20
   04A3 6F            [ 4]  950 	ld	l,a
   04A4 DD 7E 05      [19]  951 	ld	a,5 (ix)
   04A7 CE 00         [ 7]  952 	adc	a, #0x00
   04A9 67            [ 4]  953 	ld	h,a
   04AA 7E            [ 7]  954 	ld	a, (hl)
   04AB 81            [ 4]  955 	add	a, c
   04AC 77            [ 7]  956 	ld	(hl),a
                            957 ;ec25519.c:408: return;
   04AD DD F9         [10]  958 	ld	sp,ix
   04AF DD E1         [14]  959 	pop	ix
   04B1 C9            [10]  960 	ret
   04B2                     961 _add3332_33_end::
                            962 ;ec25519.c:413: void mul4_33( unsigned char *t, unsigned char *u ){
                            963 ;	---------------------------------
                            964 ; Function mul4_33
                            965 ; ---------------------------------
   04B2                     966 _mul4_33_start::
   04B2                     967 _mul4_33:
   04B2 DD E5         [15]  968 	push	ix
   04B4 DD 21 00 00   [14]  969 	ld	ix,#0
   04B8 DD 39         [15]  970 	add	ix,sp
   04BA F5            [11]  971 	push	af
                            972 ;ec25519.c:416: carry = 0;
   04BB 11 00 00      [10]  973 	ld	de,#0x0000
                            974 ;ec25519.c:417: for( i=0; i<32; i++ ){
   04BE 0E 00         [ 7]  975 	ld	c,#0x00
   04C0                     976 00102$:
                            977 ;ec25519.c:418: carry += (unsigned int)4*u[i];
   04C0 DD 6E 06      [19]  978 	ld	l,6 (ix)
   04C3 DD 66 07      [19]  979 	ld	h,7 (ix)
   04C6 06 00         [ 7]  980 	ld	b,#0x00
   04C8 09            [11]  981 	add	hl, bc
   04C9 6E            [ 7]  982 	ld	l,(hl)
   04CA 26 00         [ 7]  983 	ld	h,#0x00
   04CC 29            [11]  984 	add	hl, hl
   04CD 29            [11]  985 	add	hl, hl
   04CE 19            [11]  986 	add	hl,de
   04CF EB            [ 4]  987 	ex	de,hl
                            988 ;ec25519.c:419: t[i] = (carry%256);
   04D0 DD 6E 04      [19]  989 	ld	l,4 (ix)
   04D3 DD 66 05      [19]  990 	ld	h,5 (ix)
   04D6 06 00         [ 7]  991 	ld	b,#0x00
   04D8 09            [11]  992 	add	hl, bc
   04D9 DD 73 FE      [19]  993 	ld	-2 (ix),e
   04DC DD 36 FF 00   [19]  994 	ld	-1 (ix),#0x00
   04E0 DD 7E FE      [19]  995 	ld	a,-2 (ix)
   04E3 77            [ 7]  996 	ld	(hl),a
                            997 ;ec25519.c:420: carry >>= 8;
   04E4 5A            [ 4]  998 	ld	e,d
   04E5 16 00         [ 7]  999 	ld	d,#0x00
                           1000 ;ec25519.c:417: for( i=0; i<32; i++ ){
   04E7 0C            [ 4] 1001 	inc	c
   04E8 79            [ 4] 1002 	ld	a,c
   04E9 D6 20         [ 7] 1003 	sub	a, #0x20
   04EB 38 D3         [12] 1004 	jr	C,00102$
                           1005 ;ec25519.c:422: t[32]=(unsigned char)carry;
   04ED DD 7E 04      [19] 1006 	ld	a,4 (ix)
   04F0 C6 20         [ 7] 1007 	add	a, #0x20
   04F2 6F            [ 4] 1008 	ld	l,a
   04F3 DD 7E 05      [19] 1009 	ld	a,5 (ix)
   04F6 CE 00         [ 7] 1010 	adc	a, #0x00
   04F8 67            [ 4] 1011 	ld	h,a
   04F9 73            [ 7] 1012 	ld	(hl),e
                           1013 ;ec25519.c:423: return;
   04FA DD F9         [10] 1014 	ld	sp,ix
   04FC DD E1         [14] 1015 	pop	ix
   04FE C9            [10] 1016 	ret
   04FF                    1017 _mul4_33_end::
                           1018 ;ec25519.c:427: void mul38_33( unsigned char *t, unsigned char *u ){
                           1019 ;	---------------------------------
                           1020 ; Function mul38_33
                           1021 ; ---------------------------------
   04FF                    1022 _mul38_33_start::
   04FF                    1023 _mul38_33:
   04FF DD E5         [15] 1024 	push	ix
   0501 DD 21 00 00   [14] 1025 	ld	ix,#0
   0505 DD 39         [15] 1026 	add	ix,sp
   0507 F5            [11] 1027 	push	af
                           1028 ;ec25519.c:430: carry = 0;
   0508 11 00 00      [10] 1029 	ld	de,#0x0000
                           1030 ;ec25519.c:432: for( i=0; i<32; i++ ){
   050B 0E 00         [ 7] 1031 	ld	c,#0x00
   050D                    1032 00102$:
                           1033 ;ec25519.c:433: carry += 38*u[i]; /* sdcc optimizes to x>>5+x>>2+x>>1 */
   050D DD 6E 06      [19] 1034 	ld	l,6 (ix)
   0510 DD 66 07      [19] 1035 	ld	h,7 (ix)
   0513 06 00         [ 7] 1036 	ld	b,#0x00
   0515 09            [11] 1037 	add	hl, bc
   0516 7E            [ 7] 1038 	ld	a,(hl)
   0517 D5            [11] 1039 	push	de
   0518 5F            [ 4] 1040 	ld	e,a
   0519 16 00         [ 7] 1041 	ld	d,#0x00
   051B 6B            [ 4] 1042 	ld	l, e
   051C 62            [ 4] 1043 	ld	h, d
   051D 29            [11] 1044 	add	hl, hl
   051E 29            [11] 1045 	add	hl, hl
   051F 29            [11] 1046 	add	hl, hl
   0520 19            [11] 1047 	add	hl, de
   0521 29            [11] 1048 	add	hl, hl
   0522 19            [11] 1049 	add	hl, de
   0523 29            [11] 1050 	add	hl, hl
   0524 D1            [10] 1051 	pop	de
   0525 19            [11] 1052 	add	hl,de
   0526 EB            [ 4] 1053 	ex	de,hl
                           1054 ;ec25519.c:435: t[i] = (carry%256);
   0527 DD 6E 04      [19] 1055 	ld	l,4 (ix)
   052A DD 66 05      [19] 1056 	ld	h,5 (ix)
   052D 06 00         [ 7] 1057 	ld	b,#0x00
   052F 09            [11] 1058 	add	hl, bc
   0530 DD 73 FE      [19] 1059 	ld	-2 (ix),e
   0533 DD 36 FF 00   [19] 1060 	ld	-1 (ix),#0x00
   0537 DD 7E FE      [19] 1061 	ld	a,-2 (ix)
   053A 77            [ 7] 1062 	ld	(hl),a
                           1063 ;ec25519.c:436: carry >>= 8;
   053B 5A            [ 4] 1064 	ld	e,d
   053C 16 00         [ 7] 1065 	ld	d,#0x00
                           1066 ;ec25519.c:432: for( i=0; i<32; i++ ){
   053E 0C            [ 4] 1067 	inc	c
   053F 79            [ 4] 1068 	ld	a,c
   0540 D6 20         [ 7] 1069 	sub	a, #0x20
   0542 38 C9         [12] 1070 	jr	C,00102$
                           1071 ;ec25519.c:438: t[32]=(unsigned char)carry;
   0544 DD 7E 04      [19] 1072 	ld	a,4 (ix)
   0547 C6 20         [ 7] 1073 	add	a, #0x20
   0549 6F            [ 4] 1074 	ld	l,a
   054A DD 7E 05      [19] 1075 	ld	a,5 (ix)
   054D CE 00         [ 7] 1076 	adc	a, #0x00
   054F 67            [ 4] 1077 	ld	h,a
   0550 73            [ 7] 1078 	ld	(hl),e
                           1079 ;ec25519.c:439: return;
   0551 DD F9         [10] 1080 	ld	sp,ix
   0553 DD E1         [14] 1081 	pop	ix
   0555 C9            [10] 1082 	ret
   0556                    1083 _mul38_33_end::
                           1084 ;ec25519.c:443: void reduce25519( unsigned char *t ){
                           1085 ;	---------------------------------
                           1086 ; Function reduce25519
                           1087 ; ---------------------------------
   0556                    1088 _reduce25519_start::
   0556                    1089 _reduce25519:
   0556 DD E5         [15] 1090 	push	ix
   0558 DD 21 00 00   [14] 1091 	ld	ix,#0
   055C DD 39         [15] 1092 	add	ix,sp
                           1093 ;ec25519.c:448: t2 = (unsigned int)38*t[32];
   055E DD 5E 04      [19] 1094 	ld	e,4 (ix)
   0561 DD 56 05      [19] 1095 	ld	d,5 (ix)
   0564 6B            [ 4] 1096 	ld	l, e
   0565 62            [ 4] 1097 	ld	h, d
   0566 01 20 00      [10] 1098 	ld	bc, #0x0020
   0569 09            [11] 1099 	add	hl, bc
   056A 6E            [ 7] 1100 	ld	l,(hl)
   056B 26 00         [ 7] 1101 	ld	h,#0x00
   056D 4D            [ 4] 1102 	ld	c, l
   056E 44            [ 4] 1103 	ld	b, h
   056F 29            [11] 1104 	add	hl, hl
   0570 29            [11] 1105 	add	hl, hl
   0571 29            [11] 1106 	add	hl, hl
   0572 09            [11] 1107 	add	hl, bc
   0573 29            [11] 1108 	add	hl, hl
   0574 09            [11] 1109 	add	hl, bc
   0575 29            [11] 1110 	add	hl, hl
                           1111 ;ec25519.c:450: add0232_33( t, t2, t );
   0576 D5            [11] 1112 	push	de
   0577 DD 4E 04      [19] 1113 	ld	c,4 (ix)
   057A DD 46 05      [19] 1114 	ld	b,5 (ix)
   057D C5            [11] 1115 	push	bc
   057E E5            [11] 1116 	push	hl
   057F DD 6E 04      [19] 1117 	ld	l,4 (ix)
   0582 DD 66 05      [19] 1118 	ld	h,5 (ix)
   0585 E5            [11] 1119 	push	hl
   0586 CDrC3r03      [17] 1120 	call	_add0232_33
   0589 21 06 00      [10] 1121 	ld	hl,#0x0006
   058C 39            [11] 1122 	add	hl,sp
   058D F9            [ 6] 1123 	ld	sp,hl
                           1124 ;ec25519.c:451: if( 0!= t[32] ){
   058E E1            [10] 1125 	pop	hl
   058F 11 20 00      [10] 1126 	ld	de, #0x0020
   0592 19            [11] 1127 	add	hl, de
   0593 7E            [ 7] 1128 	ld	a,(hl)
   0594 B7            [ 4] 1129 	or	a, a
   0595 28 23         [12] 1130 	jr	Z,00102$
                           1131 ;ec25519.c:453: t1 = (unsigned int)38*t[32];
   0597 6F            [ 4] 1132 	ld	l,a
   0598 26 00         [ 7] 1133 	ld	h,#0x00
   059A 4D            [ 4] 1134 	ld	c, l
   059B 44            [ 4] 1135 	ld	b, h
   059C 29            [11] 1136 	add	hl, hl
   059D 29            [11] 1137 	add	hl, hl
   059E 29            [11] 1138 	add	hl, hl
   059F 09            [11] 1139 	add	hl, bc
   05A0 29            [11] 1140 	add	hl, hl
   05A1 09            [11] 1141 	add	hl, bc
   05A2 29            [11] 1142 	add	hl, hl
                           1143 ;ec25519.c:456: add0232_33( t, t1, t );
   05A3 DD 4E 04      [19] 1144 	ld	c,4 (ix)
   05A6 DD 46 05      [19] 1145 	ld	b,5 (ix)
   05A9 C5            [11] 1146 	push	bc
   05AA E5            [11] 1147 	push	hl
   05AB DD 6E 04      [19] 1148 	ld	l,4 (ix)
   05AE DD 66 05      [19] 1149 	ld	h,5 (ix)
   05B1 E5            [11] 1150 	push	hl
   05B2 CDrC3r03      [17] 1151 	call	_add0232_33
   05B5 21 06 00      [10] 1152 	ld	hl,#0x0006
   05B8 39            [11] 1153 	add	hl,sp
   05B9 F9            [ 6] 1154 	ld	sp,hl
   05BA                    1155 00102$:
                           1156 ;ec25519.c:459: if( 1==cmp32( t, P32 ) ){
   05BA 21r64r02      [10] 1157 	ld	hl,#_P32
   05BD E5            [11] 1158 	push	hl
   05BE DD 6E 04      [19] 1159 	ld	l,4 (ix)
   05C1 DD 66 05      [19] 1160 	ld	h,5 (ix)
   05C4 E5            [11] 1161 	push	hl
   05C5 CDrD9r02      [17] 1162 	call	_cmp32
   05C8 F1            [10] 1163 	pop	af
   05C9 F1            [10] 1164 	pop	af
   05CA 2D            [ 4] 1165 	dec	l
   05CB 20 10         [12] 1166 	jr	NZ,00104$
                           1167 ;ec25519.c:460: asm_sub3232_32( t, P32 );
   05CD 21r64r02      [10] 1168 	ld	hl,#_P32
   05D0 E5            [11] 1169 	push	hl
   05D1 DD 6E 04      [19] 1170 	ld	l,4 (ix)
   05D4 DD 66 05      [19] 1171 	ld	h,5 (ix)
   05D7 E5            [11] 1172 	push	hl
   05D8 CDr40r03      [17] 1173 	call	_asm_sub3232_32
   05DB F1            [10] 1174 	pop	af
   05DC F1            [10] 1175 	pop	af
   05DD                    1176 00104$:
                           1177 ;ec25519.c:462: return;
   05DD DD E1         [14] 1178 	pop	ix
   05DF C9            [10] 1179 	ret
   05E0                    1180 _reduce25519_end::
                           1181 ;ec25519.c:466: void mod25519(){
                           1182 ;	---------------------------------
                           1183 ; Function mod25519
                           1184 ; ---------------------------------
   05E0                    1185 _mod25519_start::
   05E0                    1186 _mod25519:
                           1187 ;ec25519.c:468: mul38_33( t33, c+32 );
   05E0 21rE3r00      [10] 1188 	ld	hl,#_t33
   05E3 01r64r01      [10] 1189 	ld	bc,#(_c + 0x0020)
   05E6 C5            [11] 1190 	push	bc
   05E7 E5            [11] 1191 	push	hl
   05E8 CDrFFr04      [17] 1192 	call	_mul38_33
   05EB F1            [10] 1193 	pop	af
   05EC F1            [10] 1194 	pop	af
                           1195 ;ec25519.c:470: add3332_33( t33, c );
   05ED 21rE3r00      [10] 1196 	ld	hl,#_t33
   05F0 01r44r01      [10] 1197 	ld	bc,#_c
   05F3 C5            [11] 1198 	push	bc
   05F4 E5            [11] 1199 	push	hl
   05F5 CDr4Cr04      [17] 1200 	call	_add3332_33
   05F8 F1            [10] 1201 	pop	af
                           1202 ;ec25519.c:471: reduce25519( t33 );
   05F9 21rE3r00      [10] 1203 	ld	hl, #_t33
   05FC E3            [19] 1204 	ex	(sp),hl
   05FD CDr56r05      [17] 1205 	call	_reduce25519
   0600 F1            [10] 1206 	pop	af
                           1207 ;ec25519.c:472: return;
   0601 C9            [10] 1208 	ret
   0602                    1209 _mod25519_end::
                           1210 ;ec25519.c:485: long muladd( unsigned long w, unsigned char u, unsigned char v ){
                           1211 ;	---------------------------------
                           1212 ; Function muladd
                           1213 ; ---------------------------------
   0602                    1214 _muladd_start::
   0602                    1215 _muladd:
                           1216 ;ec25519.c:548: __endasm;
   0602 DD E5         [15] 1217 	push ix
   0604 DD 21 00 00   [14] 1218 	ld ix,#0
   0608 DD 39         [15] 1219 	add ix,sp
   060A C5            [11] 1220 	push bc
   060B DD 6E 09      [19] 1221 	ld l,9(ix)
   060E DD 66 08      [19] 1222 	ld h,8(ix)
   0611 4D            [ 4] 1223 	ld c,l
   0612 06 00         [ 7] 1224 	ld b,#0
   0614 68            [ 4] 1225 	ld l,b
   0615 29            [11] 1226 	add hl,hl
   0616 30 01         [12] 1227 	jr NC,00001$
   0618 09            [11] 1228 	add hl,bc
   0619                    1229 	00001$:
   0619 29            [11] 1230 	add hl,hl
   061A 30 01         [12] 1231 	jr NC,00002$
   061C 09            [11] 1232 	add hl,bc
   061D                    1233 	00002$:
   061D 29            [11] 1234 	add hl,hl
   061E 30 01         [12] 1235 	jr NC,00003$
   0620 09            [11] 1236 	add hl,bc
   0621                    1237 	00003$:
   0621 29            [11] 1238 	add hl,hl
   0622 30 01         [12] 1239 	jr NC,00004$
   0624 09            [11] 1240 	add hl,bc
   0625                    1241 	00004$:
   0625 29            [11] 1242 	add hl,hl
   0626 30 01         [12] 1243 	jr NC,00005$
   0628 09            [11] 1244 	add hl,bc
   0629                    1245 	00005$:
   0629 29            [11] 1246 	add hl,hl
   062A 30 01         [12] 1247 	jr NC,00006$
   062C 09            [11] 1248 	add hl,bc
   062D                    1249 	00006$:
   062D 29            [11] 1250 	add hl,hl
   062E 30 01         [12] 1251 	jr NC,00007$
   0630 09            [11] 1252 	add hl,bc
   0631                    1253 	00007$:
   0631 29            [11] 1254 	add hl,hl
   0632 30 01         [12] 1255 	jr NC,00008$
   0634 09            [11] 1256 	add hl,bc
   0635                    1257 	00008$:
   0635 C1            [10] 1258 	pop bc
   0636 11 00 00      [10] 1259 	ld de,#0x0000
   0639 DD 7E 04      [19] 1260 	ld a,4 (ix)
   063C 85            [ 4] 1261 	add a, l
   063D 6F            [ 4] 1262 	ld l,a
   063E DD 7E 05      [19] 1263 	ld a,5 (ix)
   0641 8C            [ 4] 1264 	adc a, h
   0642 67            [ 4] 1265 	ld h,a
   0643 DD 7E 06      [19] 1266 	ld a,6 (ix)
   0646 8B            [ 4] 1267 	adc a, e
   0647 5F            [ 4] 1268 	ld e,a
   0648 DD 7E 07      [19] 1269 	ld a,7 (ix)
   064B 8A            [ 4] 1270 	adc a, d
   064C 57            [ 4] 1271 	ld d,a
   064D DD F9         [10] 1272 	ld sp,ix
   064F DD E1         [14] 1273 	pop ix
   0651 C9            [10] 1274 	ret
                           1275 ;ec25519.c:549: u; v; return w;
   0652 FD 21 02 00   [14] 1276 	ld	iy,#2
   0656 FD 39         [15] 1277 	add	iy,sp
   0658 FD 6E 00      [19] 1278 	ld	l,0 (iy)
   065B FD 66 01      [19] 1279 	ld	h,1 (iy)
   065E FD 5E 02      [19] 1280 	ld	e,2 (iy)
   0661 FD 56 03      [19] 1281 	ld	d,3 (iy)
   0664 C9            [10] 1282 	ret
   0665                    1283 _muladd_end::
                           1284 ;ec25519.c:554: void comba_32(){
                           1285 ;	---------------------------------
                           1286 ; Function comba_32
                           1287 ; ---------------------------------
   0665                    1288 _comba_32_start::
   0665                    1289 _comba_32:
   0665 DD E5         [15] 1290 	push	ix
   0667 DD 21 00 00   [14] 1291 	ld	ix,#0
   066B DD 39         [15] 1292 	add	ix,sp
   066D 21 E6 FF      [10] 1293 	ld	hl,#-26
   0670 39            [11] 1294 	add	hl,sp
   0671 F9            [ 6] 1295 	ld	sp,hl
                           1296 ;ec25519.c:558: c1 = 0; c2 = 0; c0 = 0;
   0672 DD 36 E8 00   [19] 1297 	ld	-24 (ix),#0x00
   0676 DD 36 E9 00   [19] 1298 	ld	-23 (ix),#0x00
   067A 21 00 00      [10] 1299 	ld	hl,#0x0000
   067D E3            [19] 1300 	ex	(sp), hl
   067E DD 36 EA 00   [19] 1301 	ld	-22 (ix),#0x00
   0682 DD 36 EB 00   [19] 1302 	ld	-21 (ix),#0x00
                           1303 ;ec25519.c:559: for( ix=0; ix<63; ix++ ){
   0686 DD 36 EF 00   [19] 1304 	ld	-17 (ix),#0x00
   068A                    1305 00110$:
                           1306 ;ec25519.c:560: w = 0L;
   068A AF            [ 4] 1307 	xor	a, a
   068B DD 77 F0      [19] 1308 	ld	-16 (ix),a
   068E DD 77 F1      [19] 1309 	ld	-15 (ix),a
   0691 DD 77 F2      [19] 1310 	ld	-14 (ix),a
   0694 DD 77 F3      [19] 1311 	ld	-13 (ix),a
                           1312 ;ec25519.c:561: ty = __MIN(__DIGITS-1,ix);
   0697 3E 1F         [ 7] 1313 	ld	a,#0x1F
   0699 DD 96 EF      [19] 1314 	sub	a, -17 (ix)
   069C 30 04         [12] 1315 	jr	NC,00114$
   069E 3E 1F         [ 7] 1316 	ld	a,#0x1F
   06A0 18 03         [12] 1317 	jr	00115$
   06A2                    1318 00114$:
   06A2 DD 7E EF      [19] 1319 	ld	a,-17 (ix)
   06A5                    1320 00115$:
   06A5 DD 77 EC      [19] 1321 	ld	-20 (ix),a
                           1322 ;ec25519.c:562: tx = ix-ty;
   06A8 DD 7E EF      [19] 1323 	ld	a,-17 (ix)
   06AB DD 96 EC      [19] 1324 	sub	a, -20 (ix)
                           1325 ;ec25519.c:563: iy = __MIN(__DIGITS-tx,ty+1);
   06AE DD 77 ED      [19] 1326 	ld	-19 (ix), a
   06B1 DD 77 FE      [19] 1327 	ld	-2 (ix),a
   06B4 DD 36 FF 00   [19] 1328 	ld	-1 (ix),#0x00
   06B8 3E 20         [ 7] 1329 	ld	a,#0x20
   06BA DD 96 FE      [19] 1330 	sub	a, -2 (ix)
   06BD DD 77 FE      [19] 1331 	ld	-2 (ix),a
   06C0 3E 00         [ 7] 1332 	ld	a,#0x00
   06C2 DD 9E FF      [19] 1333 	sbc	a, -1 (ix)
   06C5 DD 77 FF      [19] 1334 	ld	-1 (ix),a
   06C8 DD 7E EC      [19] 1335 	ld	a,-20 (ix)
   06CB DD 77 FC      [19] 1336 	ld	-4 (ix),a
   06CE DD 36 FD 00   [19] 1337 	ld	-3 (ix),#0x00
   06D2 DD 34 FC      [23] 1338 	inc	-4 (ix)
   06D5 20 03         [12] 1339 	jr	NZ,00144$
   06D7 DD 34 FD      [23] 1340 	inc	-3 (ix)
   06DA                    1341 00144$:
   06DA DD 7E FE      [19] 1342 	ld	a,-2 (ix)
   06DD DD 96 FC      [19] 1343 	sub	a, -4 (ix)
   06E0 DD 7E FF      [19] 1344 	ld	a,-1 (ix)
   06E3 DD 9E FD      [19] 1345 	sbc	a, -3 (ix)
   06E6 E2rEBr06      [10] 1346 	jp	PO, 00145$
   06E9 EE 80         [ 7] 1347 	xor	a, #0x80
   06EB                    1348 00145$:
   06EB F2rF5r06      [10] 1349 	jp	P,00116$
   06EE 3E 20         [ 7] 1350 	ld	a,#0x20
   06F0 DD 96 ED      [19] 1351 	sub	a, -19 (ix)
   06F3 18 04         [12] 1352 	jr	00117$
   06F5                    1353 00116$:
   06F5 DD 7E EC      [19] 1354 	ld	a,-20 (ix)
   06F8 3C            [ 4] 1355 	inc	a
   06F9                    1356 00117$:
   06F9 DD 77 EE      [19] 1357 	ld	-18 (ix),a
                           1358 ;ec25519.c:564: for( iz=0; iz<iy; iz++ ){
   06FC 0E 00         [ 7] 1359 	ld	c,#0x00
   06FE                    1360 00108$:
   06FE 79            [ 4] 1361 	ld	a,c
   06FF DD 96 EE      [19] 1362 	sub	a, -18 (ix)
   0702 30 41         [12] 1363 	jr	NC,00101$
                           1364 ;ec25519.c:566: w = muladd( w, a[tx+iz], b[ty-iz] );
   0704 DD 7E EC      [19] 1365 	ld	a,-20 (ix)
   0707 91            [ 4] 1366 	sub	a, c
   0708 5F            [ 4] 1367 	ld	e,a
   0709 21r24r01      [10] 1368 	ld	hl,#_b
   070C 16 00         [ 7] 1369 	ld	d,#0x00
   070E 19            [11] 1370 	add	hl, de
   070F 46            [ 7] 1371 	ld	b,(hl)
   0710 DD 7E ED      [19] 1372 	ld	a,-19 (ix)
   0713 81            [ 4] 1373 	add	a, c
   0714 5F            [ 4] 1374 	ld	e,a
   0715 21r04r01      [10] 1375 	ld	hl,#_a
   0718 16 00         [ 7] 1376 	ld	d,#0x00
   071A 19            [11] 1377 	add	hl, de
   071B 7E            [ 7] 1378 	ld	a,(hl)
   071C C5            [11] 1379 	push	bc
   071D C5            [11] 1380 	push	bc
   071E 33            [ 6] 1381 	inc	sp
   071F F5            [11] 1382 	push	af
   0720 33            [ 6] 1383 	inc	sp
   0721 DD 6E F2      [19] 1384 	ld	l,-14 (ix)
   0724 DD 66 F3      [19] 1385 	ld	h,-13 (ix)
   0727 E5            [11] 1386 	push	hl
   0728 DD 6E F0      [19] 1387 	ld	l,-16 (ix)
   072B DD 66 F1      [19] 1388 	ld	h,-15 (ix)
   072E E5            [11] 1389 	push	hl
   072F CDr02r06      [17] 1390 	call	_muladd
   0732 F1            [10] 1391 	pop	af
   0733 F1            [10] 1392 	pop	af
   0734 F1            [10] 1393 	pop	af
   0735 C1            [10] 1394 	pop	bc
   0736 DD 75 F0      [19] 1395 	ld	-16 (ix),l
   0739 DD 74 F1      [19] 1396 	ld	-15 (ix),h
   073C DD 73 F2      [19] 1397 	ld	-14 (ix),e
   073F DD 72 F3      [19] 1398 	ld	-13 (ix),d
                           1399 ;ec25519.c:564: for( iz=0; iz<iy; iz++ ){
   0742 0C            [ 4] 1400 	inc	c
   0743 18 B9         [12] 1401 	jr	00108$
   0745                    1402 00101$:
                           1403 ;ec25519.c:569: c0 += (w%256);
   0745 DD 7E F0      [19] 1404 	ld	a,-16 (ix)
   0748 DD 77 F8      [19] 1405 	ld	-8 (ix),a
   074B DD 36 F9 00   [19] 1406 	ld	-7 (ix),#0x00
   074F DD 36 FA 00   [19] 1407 	ld	-6 (ix),#0x00
   0753 DD 36 FB 00   [19] 1408 	ld	-5 (ix),#0x00
   0757 DD 7E EA      [19] 1409 	ld	a,-22 (ix)
   075A DD 77 F4      [19] 1410 	ld	-12 (ix),a
   075D DD 7E EB      [19] 1411 	ld	a,-21 (ix)
   0760 DD 77 F5      [19] 1412 	ld	-11 (ix),a
   0763 DD 36 F6 00   [19] 1413 	ld	-10 (ix),#0x00
   0767 DD 36 F7 00   [19] 1414 	ld	-9 (ix),#0x00
   076B DD 7E F4      [19] 1415 	ld	a,-12 (ix)
   076E DD 86 F8      [19] 1416 	add	a, -8 (ix)
   0771 DD 77 F4      [19] 1417 	ld	-12 (ix),a
   0774 DD 7E F5      [19] 1418 	ld	a,-11 (ix)
   0777 DD 8E F9      [19] 1419 	adc	a, -7 (ix)
   077A DD 77 F5      [19] 1420 	ld	-11 (ix),a
   077D DD 7E F6      [19] 1421 	ld	a,-10 (ix)
   0780 DD 8E FA      [19] 1422 	adc	a, -6 (ix)
   0783 DD 77 F6      [19] 1423 	ld	-10 (ix),a
   0786 DD 7E F7      [19] 1424 	ld	a,-9 (ix)
   0789 DD 8E FB      [19] 1425 	adc	a, -5 (ix)
   078C DD 77 F7      [19] 1426 	ld	-9 (ix),a
   078F DD 7E F4      [19] 1427 	ld	a,-12 (ix)
   0792 DD 77 EA      [19] 1428 	ld	-22 (ix),a
   0795 DD 7E F5      [19] 1429 	ld	a,-11 (ix)
   0798 DD 77 EB      [19] 1430 	ld	-21 (ix),a
                           1431 ;ec25519.c:570: c1 += ((w>>8)%256);
   079B F5            [11] 1432 	push	af
   079C DD 7E F0      [19] 1433 	ld	a,-16 (ix)
   079F DD 77 F4      [19] 1434 	ld	-12 (ix),a
   07A2 DD 7E F1      [19] 1435 	ld	a,-15 (ix)
   07A5 DD 77 F5      [19] 1436 	ld	-11 (ix),a
   07A8 DD 7E F2      [19] 1437 	ld	a,-14 (ix)
   07AB DD 77 F6      [19] 1438 	ld	-10 (ix),a
   07AE DD 7E F3      [19] 1439 	ld	a,-13 (ix)
   07B1 DD 77 F7      [19] 1440 	ld	-9 (ix),a
   07B4 F1            [10] 1441 	pop	af
   07B5 06 08         [ 7] 1442 	ld	b,#0x08
   07B7                    1443 00146$:
   07B7 DD CB F7 3E   [23] 1444 	srl	-9 (ix)
   07BB DD CB F6 1E   [23] 1445 	rr	-10 (ix)
   07BF DD CB F5 1E   [23] 1446 	rr	-11 (ix)
   07C3 DD CB F4 1E   [23] 1447 	rr	-12 (ix)
   07C7 10 EE         [13] 1448 	djnz	00146$
   07C9 DD 36 F5 00   [19] 1449 	ld	-11 (ix),#0x00
   07CD DD 36 F6 00   [19] 1450 	ld	-10 (ix),#0x00
   07D1 DD 36 F7 00   [19] 1451 	ld	-9 (ix),#0x00
   07D5 DD 7E E8      [19] 1452 	ld	a,-24 (ix)
   07D8 DD 77 F8      [19] 1453 	ld	-8 (ix),a
   07DB DD 7E E9      [19] 1454 	ld	a,-23 (ix)
   07DE DD 77 F9      [19] 1455 	ld	-7 (ix),a
   07E1 DD 36 FA 00   [19] 1456 	ld	-6 (ix),#0x00
   07E5 DD 36 FB 00   [19] 1457 	ld	-5 (ix),#0x00
   07E9 DD 7E F8      [19] 1458 	ld	a,-8 (ix)
   07EC DD 86 F4      [19] 1459 	add	a, -12 (ix)
   07EF DD 77 F4      [19] 1460 	ld	-12 (ix),a
   07F2 DD 7E F9      [19] 1461 	ld	a,-7 (ix)
   07F5 DD 8E F5      [19] 1462 	adc	a, -11 (ix)
   07F8 DD 77 F5      [19] 1463 	ld	-11 (ix),a
   07FB DD 7E FA      [19] 1464 	ld	a,-6 (ix)
   07FE DD 8E F6      [19] 1465 	adc	a, -10 (ix)
   0801 DD 77 F6      [19] 1466 	ld	-10 (ix),a
   0804 DD 7E FB      [19] 1467 	ld	a,-5 (ix)
   0807 DD 8E F7      [19] 1468 	adc	a, -9 (ix)
   080A DD 77 F7      [19] 1469 	ld	-9 (ix),a
   080D DD 7E F4      [19] 1470 	ld	a,-12 (ix)
   0810 DD 77 E8      [19] 1471 	ld	-24 (ix),a
   0813 DD 7E F5      [19] 1472 	ld	a,-11 (ix)
   0816 DD 77 E9      [19] 1473 	ld	-23 (ix),a
                           1474 ;ec25519.c:571: c2 += ((w>>16)%256);
   0819 F5            [11] 1475 	push	af
   081A DD 7E F0      [19] 1476 	ld	a,-16 (ix)
   081D DD 77 F4      [19] 1477 	ld	-12 (ix),a
   0820 DD 7E F1      [19] 1478 	ld	a,-15 (ix)
   0823 DD 77 F5      [19] 1479 	ld	-11 (ix),a
   0826 DD 7E F2      [19] 1480 	ld	a,-14 (ix)
   0829 DD 77 F6      [19] 1481 	ld	-10 (ix),a
   082C DD 7E F3      [19] 1482 	ld	a,-13 (ix)
   082F DD 77 F7      [19] 1483 	ld	-9 (ix),a
   0832 F1            [10] 1484 	pop	af
   0833 06 10         [ 7] 1485 	ld	b,#0x10
   0835                    1486 00148$:
   0835 DD CB F7 3E   [23] 1487 	srl	-9 (ix)
   0839 DD CB F6 1E   [23] 1488 	rr	-10 (ix)
   083D DD CB F5 1E   [23] 1489 	rr	-11 (ix)
   0841 DD CB F4 1E   [23] 1490 	rr	-12 (ix)
   0845 10 EE         [13] 1491 	djnz	00148$
   0847 DD 36 F5 00   [19] 1492 	ld	-11 (ix),#0x00
   084B DD 36 F6 00   [19] 1493 	ld	-10 (ix),#0x00
   084F DD 36 F7 00   [19] 1494 	ld	-9 (ix),#0x00
   0853 DD 7E E6      [19] 1495 	ld	a,-26 (ix)
   0856 DD 77 F8      [19] 1496 	ld	-8 (ix),a
   0859 DD 7E E7      [19] 1497 	ld	a,-25 (ix)
   085C DD 77 F9      [19] 1498 	ld	-7 (ix),a
   085F DD 36 FA 00   [19] 1499 	ld	-6 (ix),#0x00
   0863 DD 36 FB 00   [19] 1500 	ld	-5 (ix),#0x00
   0867 DD 7E F8      [19] 1501 	ld	a,-8 (ix)
   086A DD 86 F4      [19] 1502 	add	a, -12 (ix)
   086D DD 77 F4      [19] 1503 	ld	-12 (ix),a
   0870 DD 7E F9      [19] 1504 	ld	a,-7 (ix)
   0873 DD 8E F5      [19] 1505 	adc	a, -11 (ix)
   0876 DD 77 F5      [19] 1506 	ld	-11 (ix),a
   0879 DD 7E FA      [19] 1507 	ld	a,-6 (ix)
   087C DD 8E F6      [19] 1508 	adc	a, -10 (ix)
   087F DD 77 F6      [19] 1509 	ld	-10 (ix),a
   0882 DD 7E FB      [19] 1510 	ld	a,-5 (ix)
   0885 DD 8E F7      [19] 1511 	adc	a, -9 (ix)
   0888 DD 77 F7      [19] 1512 	ld	-9 (ix),a
   088B DD 7E F4      [19] 1513 	ld	a,-12 (ix)
   088E DD 77 E6      [19] 1514 	ld	-26 (ix),a
   0891 DD 7E F5      [19] 1515 	ld	a,-11 (ix)
   0894 DD 77 E7      [19] 1516 	ld	-25 (ix),a
                           1517 ;ec25519.c:572: if( c0>=256 ){
   0897 DD 7E EB      [19] 1518 	ld	a,-21 (ix)
   089A B7            [ 4] 1519 	or	a, a
   089B 28 17         [12] 1520 	jr	Z,00103$
                           1521 ;ec25519.c:573: c1 += (c0>>8);
   089D DD 66 EB      [19] 1522 	ld	h,-21 (ix)
   08A0 2E 00         [ 7] 1523 	ld	l,#0x00
   08A2 DD 7E E8      [19] 1524 	ld	a,-24 (ix)
   08A5 84            [ 4] 1525 	add	a, h
   08A6 DD 77 E8      [19] 1526 	ld	-24 (ix),a
   08A9 DD 7E E9      [19] 1527 	ld	a,-23 (ix)
   08AC 8D            [ 4] 1528 	adc	a, l
   08AD DD 77 E9      [19] 1529 	ld	-23 (ix),a
                           1530 ;ec25519.c:574: c0  = (c0%256);
   08B0 DD 36 EB 00   [19] 1531 	ld	-21 (ix),#0x00
   08B4                    1532 00103$:
                           1533 ;ec25519.c:576: if( c1>=256 ){
   08B4 DD 7E E9      [19] 1534 	ld	a,-23 (ix)
   08B7 B7            [ 4] 1535 	or	a, a
   08B8 28 17         [12] 1536 	jr	Z,00105$
                           1537 ;ec25519.c:577: c2 += (c1>>8);
   08BA DD 66 E9      [19] 1538 	ld	h,-23 (ix)
   08BD 2E 00         [ 7] 1539 	ld	l,#0x00
   08BF DD 7E E6      [19] 1540 	ld	a,-26 (ix)
   08C2 84            [ 4] 1541 	add	a, h
   08C3 DD 77 E6      [19] 1542 	ld	-26 (ix),a
   08C6 DD 7E E7      [19] 1543 	ld	a,-25 (ix)
   08C9 8D            [ 4] 1544 	adc	a, l
   08CA DD 77 E7      [19] 1545 	ld	-25 (ix),a
                           1546 ;ec25519.c:578: c1  = (c1%256);
   08CD DD 36 E9 00   [19] 1547 	ld	-23 (ix),#0x00
   08D1                    1548 00105$:
                           1549 ;ec25519.c:582: c[ix] = c0;
   08D1 3Er44         [ 7] 1550 	ld	a,#<(_c)
   08D3 DD 86 EF      [19] 1551 	add	a, -17 (ix)
   08D6 6F            [ 4] 1552 	ld	l,a
   08D7 3Es01         [ 7] 1553 	ld	a,#>(_c)
   08D9 CE 00         [ 7] 1554 	adc	a, #0x00
   08DB 67            [ 4] 1555 	ld	h,a
   08DC DD 7E EA      [19] 1556 	ld	a,-22 (ix)
   08DF 77            [ 7] 1557 	ld	(hl),a
                           1558 ;ec25519.c:583: c0 = c1; c1 = c2; c2 = 0;
   08E0 DD 7E E8      [19] 1559 	ld	a,-24 (ix)
   08E3 DD 77 EA      [19] 1560 	ld	-22 (ix),a
   08E6 DD 7E E9      [19] 1561 	ld	a,-23 (ix)
   08E9 DD 77 EB      [19] 1562 	ld	-21 (ix),a
   08EC DD 7E E6      [19] 1563 	ld	a,-26 (ix)
   08EF DD 77 E8      [19] 1564 	ld	-24 (ix),a
   08F2 DD 7E E7      [19] 1565 	ld	a,-25 (ix)
   08F5 DD 77 E9      [19] 1566 	ld	-23 (ix),a
   08F8 21 00 00      [10] 1567 	ld	hl,#0x0000
   08FB E3            [19] 1568 	ex	(sp), hl
                           1569 ;ec25519.c:559: for( ix=0; ix<63; ix++ ){
   08FC DD 34 EF      [23] 1570 	inc	-17 (ix)
   08FF DD 7E EF      [19] 1571 	ld	a,-17 (ix)
   0902 D6 3F         [ 7] 1572 	sub	a, #0x3F
   0904 DAr8Ar06      [10] 1573 	jp	C,00110$
                           1574 ;ec25519.c:585: c[63]=c0;
   0907 21r83r01      [10] 1575 	ld	hl,#_c + 63
   090A DD 7E EA      [19] 1576 	ld	a,-22 (ix)
   090D 77            [ 7] 1577 	ld	(hl),a
                           1578 ;ec25519.c:586: return;
   090E DD F9         [10] 1579 	ld	sp,ix
   0910 DD E1         [14] 1580 	pop	ix
   0912 C9            [10] 1581 	ret
   0913                    1582 _comba_32_end::
                           1583 ;ec25519.c:590: void modmul(){
                           1584 ;	---------------------------------
                           1585 ; Function modmul
                           1586 ; ---------------------------------
   0913                    1587 _modmul_start::
   0913                    1588 _modmul:
                           1589 ;ec25519.c:594: comba_32();
   0913 CDr65r06      [17] 1590 	call	_comba_32
                           1591 ;ec25519.c:595: mod25519();
   0916 C3rE0r05      [10] 1592 	jp	_mod25519
   0919                    1593 _modmul_end::
                           1594 ;ec25519.c:601: void ldr( unsigned char *d, unsigned char *r ){
                           1595 ;	---------------------------------
                           1596 ; Function ldr
                           1597 ; ---------------------------------
   0919                    1598 _ldr_start::
   0919                    1599 _ldr:
   0919 DD E5         [15] 1600 	push	ix
   091B DD 21 00 00   [14] 1601 	ld	ix,#0
   091F DD 39         [15] 1602 	add	ix,sp
                           1603 ;ec25519.c:603: for( i=0; i<32; i++ ) d[i]=r[i];
   0921 1E 00         [ 7] 1604 	ld	e,#0x00
   0923                    1605 00102$:
   0923 DD 7E 04      [19] 1606 	ld	a,4 (ix)
   0926 83            [ 4] 1607 	add	a, e
   0927 4F            [ 4] 1608 	ld	c,a
   0928 DD 7E 05      [19] 1609 	ld	a,5 (ix)
   092B CE 00         [ 7] 1610 	adc	a, #0x00
   092D 47            [ 4] 1611 	ld	b,a
   092E DD 6E 06      [19] 1612 	ld	l,6 (ix)
   0931 DD 66 07      [19] 1613 	ld	h,7 (ix)
   0934 16 00         [ 7] 1614 	ld	d,#0x00
   0936 19            [11] 1615 	add	hl, de
   0937 7E            [ 7] 1616 	ld	a,(hl)
   0938 02            [ 7] 1617 	ld	(bc),a
   0939 1C            [ 4] 1618 	inc	e
   093A 7B            [ 4] 1619 	ld	a,e
   093B D6 20         [ 7] 1620 	sub	a, #0x20
   093D 38 E4         [12] 1621 	jr	C,00102$
   093F DD E1         [14] 1622 	pop	ix
   0941 C9            [10] 1623 	ret
   0942                    1624 _ldr_end::
                           1625 ;ec25519.c:607: void modadd(  unsigned char *v ){
                           1626 ;	---------------------------------
                           1627 ; Function modadd
                           1628 ; ---------------------------------
   0942                    1629 _modadd_start::
   0942                    1630 _modadd:
                           1631 ;ec25519.c:611: add3332_33( t33, v );
   0942 21rE3r00      [10] 1632 	ld	hl,#_t33
   0945 D1            [10] 1633 	pop	de
   0946 C1            [10] 1634 	pop	bc
   0947 C5            [11] 1635 	push	bc
   0948 D5            [11] 1636 	push	de
   0949 C5            [11] 1637 	push	bc
   094A E5            [11] 1638 	push	hl
   094B CDr4Cr04      [17] 1639 	call	_add3332_33
   094E F1            [10] 1640 	pop	af
                           1641 ;ec25519.c:612: reduce25519( t33 );
   094F 21rE3r00      [10] 1642 	ld	hl, #_t33
   0952 E3            [19] 1643 	ex	(sp),hl
   0953 CDr56r05      [17] 1644 	call	_reduce25519
   0956 F1            [10] 1645 	pop	af
                           1646 ;ec25519.c:613: return;
   0957 C9            [10] 1647 	ret
   0958                    1648 _modadd_end::
                           1649 ;ec25519.c:621: void modsub( unsigned char *u, unsigned char *v ){
                           1650 ;	---------------------------------
                           1651 ; Function modsub
                           1652 ; ---------------------------------
   0958                    1653 _modsub_start::
   0958                    1654 _modsub:
   0958 DD E5         [15] 1655 	push	ix
   095A DD 21 00 00   [14] 1656 	ld	ix,#0
   095E DD 39         [15] 1657 	add	ix,sp
                           1658 ;ec25519.c:625: if( 1==cmp32( u, v ) ){
   0960 DD 6E 06      [19] 1659 	ld	l,6 (ix)
   0963 DD 66 07      [19] 1660 	ld	h,7 (ix)
   0966 E5            [11] 1661 	push	hl
   0967 DD 6E 04      [19] 1662 	ld	l,4 (ix)
   096A DD 66 05      [19] 1663 	ld	h,5 (ix)
   096D E5            [11] 1664 	push	hl
   096E CDrD9r02      [17] 1665 	call	_cmp32
   0971 F1            [10] 1666 	pop	af
   0972 F1            [10] 1667 	pop	af
   0973 2D            [ 4] 1668 	dec	l
   0974 20 22         [12] 1669 	jr	NZ,00102$
                           1670 ;ec25519.c:626: ldr( t33, u );
   0976 21rE3r00      [10] 1671 	ld	hl,#_t33
   0979 DD 4E 04      [19] 1672 	ld	c,4 (ix)
   097C DD 46 05      [19] 1673 	ld	b,5 (ix)
   097F C5            [11] 1674 	push	bc
   0980 E5            [11] 1675 	push	hl
   0981 CDr19r09      [17] 1676 	call	_ldr
   0984 F1            [10] 1677 	pop	af
   0985 F1            [10] 1678 	pop	af
                           1679 ;ec25519.c:627: asm_sub3232_32( t33, v );
   0986 21rE3r00      [10] 1680 	ld	hl,#_t33
   0989 DD 4E 06      [19] 1681 	ld	c,6 (ix)
   098C DD 46 07      [19] 1682 	ld	b,7 (ix)
   098F C5            [11] 1683 	push	bc
   0990 E5            [11] 1684 	push	hl
   0991 CDr40r03      [17] 1685 	call	_asm_sub3232_32
   0994 F1            [10] 1686 	pop	af
   0995 F1            [10] 1687 	pop	af
   0996 18 20         [12] 1688 	jr	00103$
   0998                    1689 00102$:
                           1690 ;ec25519.c:630: ldr( t33, v );
   0998 21rE3r00      [10] 1691 	ld	hl,#_t33
   099B DD 4E 06      [19] 1692 	ld	c,6 (ix)
   099E DD 46 07      [19] 1693 	ld	b,7 (ix)
   09A1 C5            [11] 1694 	push	bc
   09A2 E5            [11] 1695 	push	hl
   09A3 CDr19r09      [17] 1696 	call	_ldr
   09A6 F1            [10] 1697 	pop	af
   09A7 F1            [10] 1698 	pop	af
                           1699 ;ec25519.c:631: asm_sub3232_32( t33, u );
   09A8 21rE3r00      [10] 1700 	ld	hl,#_t33
   09AB DD 4E 04      [19] 1701 	ld	c,4 (ix)
   09AE DD 46 05      [19] 1702 	ld	b,5 (ix)
   09B1 C5            [11] 1703 	push	bc
   09B2 E5            [11] 1704 	push	hl
   09B3 CDr40r03      [17] 1705 	call	_asm_sub3232_32
   09B6 F1            [10] 1706 	pop	af
   09B7 F1            [10] 1707 	pop	af
   09B8                    1708 00103$:
                           1709 ;ec25519.c:633: return;
   09B8 DD E1         [14] 1710 	pop	ix
   09BA C9            [10] 1711 	ret
   09BB                    1712 _modsub_end::
                           1713 ;ec25519.c:641: void ecc_double( unsigned char *x, unsigned char *z ){
                           1714 ;	---------------------------------
                           1715 ; Function ecc_double
                           1716 ; ---------------------------------
   09BB                    1717 _ecc_double_start::
   09BB                    1718 _ecc_double:
   09BB DD E5         [15] 1719 	push	ix
   09BD DD 21 00 00   [14] 1720 	ld	ix,#0
   09C1 DD 39         [15] 1721 	add	ix,sp
                           1722 ;ec25519.c:644: lda( z ); ldb( z ); modmul(); ldr( tz2, t33 );
   09C3 21r04r01      [10] 1723 	ld	hl,#_a
   09C6 DD 4E 06      [19] 1724 	ld	c,6 (ix)
   09C9 DD 46 07      [19] 1725 	ld	b,7 (ix)
   09CC C5            [11] 1726 	push	bc
   09CD E5            [11] 1727 	push	hl
   09CE CDr19r09      [17] 1728 	call	_ldr
   09D1 F1            [10] 1729 	pop	af
   09D2 F1            [10] 1730 	pop	af
   09D3 21r24r01      [10] 1731 	ld	hl,#_b
   09D6 DD 4E 06      [19] 1732 	ld	c,6 (ix)
   09D9 DD 46 07      [19] 1733 	ld	b,7 (ix)
   09DC C5            [11] 1734 	push	bc
   09DD E5            [11] 1735 	push	hl
   09DE CDr19r09      [17] 1736 	call	_ldr
   09E1 F1            [10] 1737 	pop	af
   09E2 F1            [10] 1738 	pop	af
   09E3 CDr13r09      [17] 1739 	call	_modmul
   09E6 21rA1r00      [10] 1740 	ld	hl,#_tz2
   09E9 01rE3r00      [10] 1741 	ld	bc,#_t33
   09EC C5            [11] 1742 	push	bc
   09ED E5            [11] 1743 	push	hl
   09EE CDr19r09      [17] 1744 	call	_ldr
   09F1 F1            [10] 1745 	pop	af
   09F2 F1            [10] 1746 	pop	af
                           1747 ;ec25519.c:645: lda( x ); ldb( x ); modmul(); ldr( tx2, t33 ); 
   09F3 21r04r01      [10] 1748 	ld	hl,#_a
   09F6 DD 4E 04      [19] 1749 	ld	c,4 (ix)
   09F9 DD 46 05      [19] 1750 	ld	b,5 (ix)
   09FC C5            [11] 1751 	push	bc
   09FD E5            [11] 1752 	push	hl
   09FE CDr19r09      [17] 1753 	call	_ldr
   0A01 F1            [10] 1754 	pop	af
   0A02 F1            [10] 1755 	pop	af
   0A03 21r24r01      [10] 1756 	ld	hl,#_b
   0A06 DD 4E 04      [19] 1757 	ld	c,4 (ix)
   0A09 DD 46 05      [19] 1758 	ld	b,5 (ix)
   0A0C C5            [11] 1759 	push	bc
   0A0D E5            [11] 1760 	push	hl
   0A0E CDr19r09      [17] 1761 	call	_ldr
   0A11 F1            [10] 1762 	pop	af
   0A12 F1            [10] 1763 	pop	af
   0A13 CDr13r09      [17] 1764 	call	_modmul
   0A16 21r80r00      [10] 1765 	ld	hl,#_tx2
   0A19 01rE3r00      [10] 1766 	ld	bc,#_t33
   0A1C C5            [11] 1767 	push	bc
   0A1D E5            [11] 1768 	push	hl
   0A1E CDr19r09      [17] 1769 	call	_ldr
   0A21 F1            [10] 1770 	pop	af
   0A22 F1            [10] 1771 	pop	af
                           1772 ;ec25519.c:647: lda( x ); ldb( z ); modmul(); ldt( txz, t33 );
   0A23 21r04r01      [10] 1773 	ld	hl,#_a
   0A26 DD 4E 04      [19] 1774 	ld	c,4 (ix)
   0A29 DD 46 05      [19] 1775 	ld	b,5 (ix)
   0A2C C5            [11] 1776 	push	bc
   0A2D E5            [11] 1777 	push	hl
   0A2E CDr19r09      [17] 1778 	call	_ldr
   0A31 F1            [10] 1779 	pop	af
   0A32 F1            [10] 1780 	pop	af
   0A33 21r24r01      [10] 1781 	ld	hl,#_b
   0A36 DD 4E 06      [19] 1782 	ld	c,6 (ix)
   0A39 DD 46 07      [19] 1783 	ld	b,7 (ix)
   0A3C C5            [11] 1784 	push	bc
   0A3D E5            [11] 1785 	push	hl
   0A3E CDr19r09      [17] 1786 	call	_ldr
   0A41 F1            [10] 1787 	pop	af
   0A42 F1            [10] 1788 	pop	af
   0A43 CDr13r09      [17] 1789 	call	_modmul
   0A46 21rC2r00      [10] 1790 	ld	hl,#_txz
   0A49 01rE3r00      [10] 1791 	ld	bc,#_t33
   0A4C C5            [11] 1792 	push	bc
   0A4D E5            [11] 1793 	push	hl
   0A4E CDr19r09      [17] 1794 	call	_ldr
   0A51 F1            [10] 1795 	pop	af
   0A52 F1            [10] 1796 	pop	af
   0A53 21rE2r00      [10] 1797 	ld	hl,#_txz + 32
   0A56 36 00         [10] 1798 	ld	(hl),#0x00
                           1799 ;ec25519.c:649: modsub( tz2, tx2 );
   0A58 21rA1r00      [10] 1800 	ld	hl,#_tz2
   0A5B 01r80r00      [10] 1801 	ld	bc,#_tx2
   0A5E C5            [11] 1802 	push	bc
   0A5F E5            [11] 1803 	push	hl
   0A60 CDr58r09      [17] 1804 	call	_modsub
   0A63 F1            [10] 1805 	pop	af
   0A64 F1            [10] 1806 	pop	af
                           1807 ;ec25519.c:650: lda( t33 ); ldb( t33 ); modmul(); 
   0A65 21r04r01      [10] 1808 	ld	hl,#_a
   0A68 01rE3r00      [10] 1809 	ld	bc,#_t33
   0A6B C5            [11] 1810 	push	bc
   0A6C E5            [11] 1811 	push	hl
   0A6D CDr19r09      [17] 1812 	call	_ldr
   0A70 F1            [10] 1813 	pop	af
   0A71 F1            [10] 1814 	pop	af
   0A72 21r24r01      [10] 1815 	ld	hl,#_b
   0A75 01rE3r00      [10] 1816 	ld	bc,#_t33
   0A78 C5            [11] 1817 	push	bc
   0A79 E5            [11] 1818 	push	hl
   0A7A CDr19r09      [17] 1819 	call	_ldr
   0A7D F1            [10] 1820 	pop	af
   0A7E F1            [10] 1821 	pop	af
   0A7F CDr13r09      [17] 1822 	call	_modmul
                           1823 ;ec25519.c:652: ldr( x, t33 ); 
   0A82 21rE3r00      [10] 1824 	ld	hl,#_t33
   0A85 E5            [11] 1825 	push	hl
   0A86 DD 6E 04      [19] 1826 	ld	l,4 (ix)
   0A89 DD 66 05      [19] 1827 	ld	h,5 (ix)
   0A8C E5            [11] 1828 	push	hl
   0A8D CDr19r09      [17] 1829 	call	_ldr
   0A90 F1            [10] 1830 	pop	af
   0A91 F1            [10] 1831 	pop	af
                           1832 ;ec25519.c:655: lda( txz ); ldb( A32 ); modmul();
   0A92 21r04r01      [10] 1833 	ld	hl,#_a
   0A95 01rC2r00      [10] 1834 	ld	bc,#_txz
   0A98 C5            [11] 1835 	push	bc
   0A99 E5            [11] 1836 	push	hl
   0A9A CDr19r09      [17] 1837 	call	_ldr
   0A9D F1            [10] 1838 	pop	af
   0A9E F1            [10] 1839 	pop	af
   0A9F 21r24r01      [10] 1840 	ld	hl,#_b
   0AA2 01r84r02      [10] 1841 	ld	bc,#_A32
   0AA5 C5            [11] 1842 	push	bc
   0AA6 E5            [11] 1843 	push	hl
   0AA7 CDr19r09      [17] 1844 	call	_ldr
   0AAA F1            [10] 1845 	pop	af
   0AAB F1            [10] 1846 	pop	af
   0AAC CDr13r09      [17] 1847 	call	_modmul
                           1848 ;ec25519.c:657: t33[32]=0; modadd( tx2 ); modadd( tz2 );
   0AAF 21r03r01      [10] 1849 	ld	hl,#_t33 + 32
   0AB2 36 00         [10] 1850 	ld	(hl),#0x00
   0AB4 21r80r00      [10] 1851 	ld	hl,#_tx2
   0AB7 E5            [11] 1852 	push	hl
   0AB8 CDr42r09      [17] 1853 	call	_modadd
   0ABB 21rA1r00      [10] 1854 	ld	hl, #_tz2
   0ABE E3            [19] 1855 	ex	(sp),hl
   0ABF CDr42r09      [17] 1856 	call	_modadd
   0AC2 F1            [10] 1857 	pop	af
                           1858 ;ec25519.c:659: lda( t33 ); ldb( txz ); modmul();
   0AC3 21r04r01      [10] 1859 	ld	hl,#_a
   0AC6 01rE3r00      [10] 1860 	ld	bc,#_t33
   0AC9 C5            [11] 1861 	push	bc
   0ACA E5            [11] 1862 	push	hl
   0ACB CDr19r09      [17] 1863 	call	_ldr
   0ACE F1            [10] 1864 	pop	af
   0ACF F1            [10] 1865 	pop	af
   0AD0 21r24r01      [10] 1866 	ld	hl,#_b
   0AD3 01rC2r00      [10] 1867 	ld	bc,#_txz
   0AD6 C5            [11] 1868 	push	bc
   0AD7 E5            [11] 1869 	push	hl
   0AD8 CDr19r09      [17] 1870 	call	_ldr
   0ADB F1            [10] 1871 	pop	af
   0ADC F1            [10] 1872 	pop	af
   0ADD CDr13r09      [17] 1873 	call	_modmul
                           1874 ;ec25519.c:661: mul4_33( t33, t33 );
   0AE0 21rE3r00      [10] 1875 	ld	hl,#_t33
   0AE3 01rE3r00      [10] 1876 	ld	bc,#_t33
   0AE6 C5            [11] 1877 	push	bc
   0AE7 E5            [11] 1878 	push	hl
   0AE8 CDrB2r04      [17] 1879 	call	_mul4_33
   0AEB F1            [10] 1880 	pop	af
                           1881 ;ec25519.c:662: reduce25519( t33 );
   0AEC 21rE3r00      [10] 1882 	ld	hl, #_t33
   0AEF E3            [19] 1883 	ex	(sp),hl
   0AF0 CDr56r05      [17] 1884 	call	_reduce25519
                           1885 ;ec25519.c:664: ldr(z,t33);
   0AF3 21rE3r00      [10] 1886 	ld	hl, #_t33
   0AF6 E3            [19] 1887 	ex	(sp),hl
   0AF7 DD 6E 06      [19] 1888 	ld	l,6 (ix)
   0AFA DD 66 07      [19] 1889 	ld	h,7 (ix)
   0AFD E5            [11] 1890 	push	hl
   0AFE CDr19r09      [17] 1891 	call	_ldr
   0B01 F1            [10] 1892 	pop	af
   0B02 F1            [10] 1893 	pop	af
   0B03 DD E1         [14] 1894 	pop	ix
   0B05 C9            [10] 1895 	ret
   0B06                    1896 _ecc_double_end::
                           1897 ;ec25519.c:671: void ecc_add( unsigned char *x_n, unsigned char *z_n,
                           1898 ;	---------------------------------
                           1899 ; Function ecc_add
                           1900 ; ---------------------------------
   0B06                    1901 _ecc_add_start::
   0B06                    1902 _ecc_add:
   0B06 DD E5         [15] 1903 	push	ix
   0B08 DD 21 00 00   [14] 1904 	ld	ix,#0
   0B0C DD 39         [15] 1905 	add	ix,sp
                           1906 ;ec25519.c:675: lda( x_m ); ldb( x_n ); modmul(); ldr( tx2, t33 );
   0B0E 21r04r01      [10] 1907 	ld	hl,#_a
   0B11 DD 4E 08      [19] 1908 	ld	c,8 (ix)
   0B14 DD 46 09      [19] 1909 	ld	b,9 (ix)
   0B17 C5            [11] 1910 	push	bc
   0B18 E5            [11] 1911 	push	hl
   0B19 CDr19r09      [17] 1912 	call	_ldr
   0B1C F1            [10] 1913 	pop	af
   0B1D F1            [10] 1914 	pop	af
   0B1E 21r24r01      [10] 1915 	ld	hl,#_b
   0B21 DD 4E 04      [19] 1916 	ld	c,4 (ix)
   0B24 DD 46 05      [19] 1917 	ld	b,5 (ix)
   0B27 C5            [11] 1918 	push	bc
   0B28 E5            [11] 1919 	push	hl
   0B29 CDr19r09      [17] 1920 	call	_ldr
   0B2C F1            [10] 1921 	pop	af
   0B2D F1            [10] 1922 	pop	af
   0B2E CDr13r09      [17] 1923 	call	_modmul
   0B31 21r80r00      [10] 1924 	ld	hl,#_tx2
   0B34 01rE3r00      [10] 1925 	ld	bc,#_t33
   0B37 C5            [11] 1926 	push	bc
   0B38 E5            [11] 1927 	push	hl
   0B39 CDr19r09      [17] 1928 	call	_ldr
   0B3C F1            [10] 1929 	pop	af
   0B3D F1            [10] 1930 	pop	af
                           1931 ;ec25519.c:676: lda( z_m ); ldb( z_n ); modmul(); ldr( tz2, t33 );
   0B3E 21r04r01      [10] 1932 	ld	hl,#_a
   0B41 DD 4E 0A      [19] 1933 	ld	c,10 (ix)
   0B44 DD 46 0B      [19] 1934 	ld	b,11 (ix)
   0B47 C5            [11] 1935 	push	bc
   0B48 E5            [11] 1936 	push	hl
   0B49 CDr19r09      [17] 1937 	call	_ldr
   0B4C F1            [10] 1938 	pop	af
   0B4D F1            [10] 1939 	pop	af
   0B4E 21r24r01      [10] 1940 	ld	hl,#_b
   0B51 DD 4E 06      [19] 1941 	ld	c,6 (ix)
   0B54 DD 46 07      [19] 1942 	ld	b,7 (ix)
   0B57 C5            [11] 1943 	push	bc
   0B58 E5            [11] 1944 	push	hl
   0B59 CDr19r09      [17] 1945 	call	_ldr
   0B5C F1            [10] 1946 	pop	af
   0B5D F1            [10] 1947 	pop	af
   0B5E CDr13r09      [17] 1948 	call	_modmul
   0B61 21rA1r00      [10] 1949 	ld	hl,#_tz2
   0B64 01rE3r00      [10] 1950 	ld	bc,#_t33
   0B67 C5            [11] 1951 	push	bc
   0B68 E5            [11] 1952 	push	hl
   0B69 CDr19r09      [17] 1953 	call	_ldr
   0B6C F1            [10] 1954 	pop	af
   0B6D F1            [10] 1955 	pop	af
                           1956 ;ec25519.c:677: modsub( tx2, tz2 );
   0B6E 21r80r00      [10] 1957 	ld	hl,#_tx2
   0B71 01rA1r00      [10] 1958 	ld	bc,#_tz2
   0B74 C5            [11] 1959 	push	bc
   0B75 E5            [11] 1960 	push	hl
   0B76 CDr58r09      [17] 1961 	call	_modsub
   0B79 F1            [10] 1962 	pop	af
   0B7A F1            [10] 1963 	pop	af
                           1964 ;ec25519.c:678: lda( t33 ); ldb( t33 ); modmul(); 
   0B7B 21r04r01      [10] 1965 	ld	hl,#_a
   0B7E 01rE3r00      [10] 1966 	ld	bc,#_t33
   0B81 C5            [11] 1967 	push	bc
   0B82 E5            [11] 1968 	push	hl
   0B83 CDr19r09      [17] 1969 	call	_ldr
   0B86 F1            [10] 1970 	pop	af
   0B87 F1            [10] 1971 	pop	af
   0B88 21r24r01      [10] 1972 	ld	hl,#_b
   0B8B 01rE3r00      [10] 1973 	ld	bc,#_t33
   0B8E C5            [11] 1974 	push	bc
   0B8F E5            [11] 1975 	push	hl
   0B90 CDr19r09      [17] 1976 	call	_ldr
   0B93 F1            [10] 1977 	pop	af
   0B94 F1            [10] 1978 	pop	af
   0B95 CDr13r09      [17] 1979 	call	_modmul
                           1980 ;ec25519.c:680: lda( t33 ); ldb( z_d ); modmul();
   0B98 21r04r01      [10] 1981 	ld	hl,#_a
   0B9B 01rE3r00      [10] 1982 	ld	bc,#_t33
   0B9E C5            [11] 1983 	push	bc
   0B9F E5            [11] 1984 	push	hl
   0BA0 CDr19r09      [17] 1985 	call	_ldr
   0BA3 F1            [10] 1986 	pop	af
   0BA4 F1            [10] 1987 	pop	af
   0BA5 21r24r01      [10] 1988 	ld	hl,#_b
   0BA8 DD 4E 0E      [19] 1989 	ld	c,14 (ix)
   0BAB DD 46 0F      [19] 1990 	ld	b,15 (ix)
   0BAE C5            [11] 1991 	push	bc
   0BAF E5            [11] 1992 	push	hl
   0BB0 CDr19r09      [17] 1993 	call	_ldr
   0BB3 F1            [10] 1994 	pop	af
   0BB4 F1            [10] 1995 	pop	af
   0BB5 CDr13r09      [17] 1996 	call	_modmul
                           1997 ;ec25519.c:681: mul4_33( t33, t33 );
   0BB8 21rE3r00      [10] 1998 	ld	hl,#_t33
   0BBB 01rE3r00      [10] 1999 	ld	bc,#_t33
   0BBE C5            [11] 2000 	push	bc
   0BBF E5            [11] 2001 	push	hl
   0BC0 CDrB2r04      [17] 2002 	call	_mul4_33
   0BC3 F1            [10] 2003 	pop	af
                           2004 ;ec25519.c:682: reduce25519( t33 );
   0BC4 21rE3r00      [10] 2005 	ld	hl, #_t33
   0BC7 E3            [19] 2006 	ex	(sp),hl
   0BC8 CDr56r05      [17] 2007 	call	_reduce25519
   0BCB F1            [10] 2008 	pop	af
                           2009 ;ec25519.c:683: ldr( txz, t33 );
   0BCC 21rC2r00      [10] 2010 	ld	hl,#_txz
   0BCF 01rE3r00      [10] 2011 	ld	bc,#_t33
   0BD2 C5            [11] 2012 	push	bc
   0BD3 E5            [11] 2013 	push	hl
   0BD4 CDr19r09      [17] 2014 	call	_ldr
   0BD7 F1            [10] 2015 	pop	af
   0BD8 F1            [10] 2016 	pop	af
                           2017 ;ec25519.c:686: lda( x_m ); ldb( z_n ); modmul(); ldr( tx2, t33 );
   0BD9 21r04r01      [10] 2018 	ld	hl,#_a
   0BDC DD 4E 08      [19] 2019 	ld	c,8 (ix)
   0BDF DD 46 09      [19] 2020 	ld	b,9 (ix)
   0BE2 C5            [11] 2021 	push	bc
   0BE3 E5            [11] 2022 	push	hl
   0BE4 CDr19r09      [17] 2023 	call	_ldr
   0BE7 F1            [10] 2024 	pop	af
   0BE8 F1            [10] 2025 	pop	af
   0BE9 21r24r01      [10] 2026 	ld	hl,#_b
   0BEC DD 4E 06      [19] 2027 	ld	c,6 (ix)
   0BEF DD 46 07      [19] 2028 	ld	b,7 (ix)
   0BF2 C5            [11] 2029 	push	bc
   0BF3 E5            [11] 2030 	push	hl
   0BF4 CDr19r09      [17] 2031 	call	_ldr
   0BF7 F1            [10] 2032 	pop	af
   0BF8 F1            [10] 2033 	pop	af
   0BF9 CDr13r09      [17] 2034 	call	_modmul
   0BFC 21r80r00      [10] 2035 	ld	hl,#_tx2
   0BFF 01rE3r00      [10] 2036 	ld	bc,#_t33
   0C02 C5            [11] 2037 	push	bc
   0C03 E5            [11] 2038 	push	hl
   0C04 CDr19r09      [17] 2039 	call	_ldr
   0C07 F1            [10] 2040 	pop	af
   0C08 F1            [10] 2041 	pop	af
                           2042 ;ec25519.c:687: lda( z_m ); ldb( x_n ); modmul(); ldr( tz2, t33 );
   0C09 21r04r01      [10] 2043 	ld	hl,#_a
   0C0C DD 4E 0A      [19] 2044 	ld	c,10 (ix)
   0C0F DD 46 0B      [19] 2045 	ld	b,11 (ix)
   0C12 C5            [11] 2046 	push	bc
   0C13 E5            [11] 2047 	push	hl
   0C14 CDr19r09      [17] 2048 	call	_ldr
   0C17 F1            [10] 2049 	pop	af
   0C18 F1            [10] 2050 	pop	af
   0C19 21r24r01      [10] 2051 	ld	hl,#_b
   0C1C DD 4E 04      [19] 2052 	ld	c,4 (ix)
   0C1F DD 46 05      [19] 2053 	ld	b,5 (ix)
   0C22 C5            [11] 2054 	push	bc
   0C23 E5            [11] 2055 	push	hl
   0C24 CDr19r09      [17] 2056 	call	_ldr
   0C27 F1            [10] 2057 	pop	af
   0C28 F1            [10] 2058 	pop	af
   0C29 CDr13r09      [17] 2059 	call	_modmul
   0C2C 21rA1r00      [10] 2060 	ld	hl,#_tz2
   0C2F 01rE3r00      [10] 2061 	ld	bc,#_t33
   0C32 C5            [11] 2062 	push	bc
   0C33 E5            [11] 2063 	push	hl
   0C34 CDr19r09      [17] 2064 	call	_ldr
   0C37 F1            [10] 2065 	pop	af
   0C38 F1            [10] 2066 	pop	af
                           2067 ;ec25519.c:688: modsub( tx2, tz2 );
   0C39 21r80r00      [10] 2068 	ld	hl,#_tx2
   0C3C 01rA1r00      [10] 2069 	ld	bc,#_tz2
   0C3F C5            [11] 2070 	push	bc
   0C40 E5            [11] 2071 	push	hl
   0C41 CDr58r09      [17] 2072 	call	_modsub
   0C44 F1            [10] 2073 	pop	af
   0C45 F1            [10] 2074 	pop	af
                           2075 ;ec25519.c:689: lda( t33 ); ldb( t33 ); modmul(); 
   0C46 21r04r01      [10] 2076 	ld	hl,#_a
   0C49 01rE3r00      [10] 2077 	ld	bc,#_t33
   0C4C C5            [11] 2078 	push	bc
   0C4D E5            [11] 2079 	push	hl
   0C4E CDr19r09      [17] 2080 	call	_ldr
   0C51 F1            [10] 2081 	pop	af
   0C52 F1            [10] 2082 	pop	af
   0C53 21r24r01      [10] 2083 	ld	hl,#_b
   0C56 01rE3r00      [10] 2084 	ld	bc,#_t33
   0C59 C5            [11] 2085 	push	bc
   0C5A E5            [11] 2086 	push	hl
   0C5B CDr19r09      [17] 2087 	call	_ldr
   0C5E F1            [10] 2088 	pop	af
   0C5F F1            [10] 2089 	pop	af
   0C60 CDr13r09      [17] 2090 	call	_modmul
                           2091 ;ec25519.c:691: lda( t33 ); ldb( x_d ); modmul();
   0C63 21r04r01      [10] 2092 	ld	hl,#_a
   0C66 01rE3r00      [10] 2093 	ld	bc,#_t33
   0C69 C5            [11] 2094 	push	bc
   0C6A E5            [11] 2095 	push	hl
   0C6B CDr19r09      [17] 2096 	call	_ldr
   0C6E F1            [10] 2097 	pop	af
   0C6F F1            [10] 2098 	pop	af
   0C70 21r24r01      [10] 2099 	ld	hl,#_b
   0C73 DD 4E 0C      [19] 2100 	ld	c,12 (ix)
   0C76 DD 46 0D      [19] 2101 	ld	b,13 (ix)
   0C79 C5            [11] 2102 	push	bc
   0C7A E5            [11] 2103 	push	hl
   0C7B CDr19r09      [17] 2104 	call	_ldr
   0C7E F1            [10] 2105 	pop	af
   0C7F F1            [10] 2106 	pop	af
   0C80 CDr13r09      [17] 2107 	call	_modmul
                           2108 ;ec25519.c:692: mul4_33( t33, t33 );
   0C83 21rE3r00      [10] 2109 	ld	hl,#_t33
   0C86 01rE3r00      [10] 2110 	ld	bc,#_t33
   0C89 C5            [11] 2111 	push	bc
   0C8A E5            [11] 2112 	push	hl
   0C8B CDrB2r04      [17] 2113 	call	_mul4_33
   0C8E F1            [10] 2114 	pop	af
                           2115 ;ec25519.c:693: reduce25519( t33 );
   0C8F 21rE3r00      [10] 2116 	ld	hl, #_t33
   0C92 E3            [19] 2117 	ex	(sp),hl
   0C93 CDr56r05      [17] 2118 	call	_reduce25519
                           2119 ;ec25519.c:695: ldr( x_n, txz ); ldr( z_n, t33 );
   0C96 21rC2r00      [10] 2120 	ld	hl, #_txz
   0C99 E3            [19] 2121 	ex	(sp),hl
   0C9A DD 6E 04      [19] 2122 	ld	l,4 (ix)
   0C9D DD 66 05      [19] 2123 	ld	h,5 (ix)
   0CA0 E5            [11] 2124 	push	hl
   0CA1 CDr19r09      [17] 2125 	call	_ldr
   0CA4 F1            [10] 2126 	pop	af
   0CA5 21rE3r00      [10] 2127 	ld	hl, #_t33
   0CA8 E3            [19] 2128 	ex	(sp),hl
   0CA9 DD 6E 06      [19] 2129 	ld	l,6 (ix)
   0CAC DD 66 07      [19] 2130 	ld	h,7 (ix)
   0CAF E5            [11] 2131 	push	hl
   0CB0 CDr19r09      [17] 2132 	call	_ldr
   0CB3 F1            [10] 2133 	pop	af
   0CB4 F1            [10] 2134 	pop	af
   0CB5 DD E1         [14] 2135 	pop	ix
   0CB7 C9            [10] 2136 	ret
   0CB8                    2137 _ecc_add_end::
                           2138 ;ec25519.c:699: void ecc_seqsmult( unsigned char *key ){
                           2139 ;	---------------------------------
                           2140 ; Function ecc_seqsmult
                           2141 ; ---------------------------------
   0CB8                    2142 _ecc_seqsmult_start::
   0CB8                    2143 _ecc_seqsmult:
   0CB8 DD E5         [15] 2144 	push	ix
   0CBA DD 21 00 00   [14] 2145 	ld	ix,#0
   0CBE DD 39         [15] 2146 	add	ix,sp
   0CC0 21 AA FF      [10] 2147 	ld	hl,#-86
   0CC3 39            [11] 2148 	add	hl,sp
   0CC4 F9            [ 6] 2149 	ld	sp,hl
                           2150 ;ec25519.c:702: unsigned char base[32] = {9};
   0CC5 21 20 00      [10] 2151 	ld	hl,#0x0020
   0CC8 39            [11] 2152 	add	hl,sp
   0CC9 DD 75 FE      [19] 2153 	ld	-2 (ix),l
   0CCC DD 74 FF      [19] 2154 	ld	-1 (ix),h
   0CCF DD 6E FE      [19] 2155 	ld	l,-2 (ix)
   0CD2 DD 66 FF      [19] 2156 	ld	h,-1 (ix)
   0CD5 36 09         [10] 2157 	ld	(hl),#0x09
   0CD7 DD 7E FE      [19] 2158 	ld	a,-2 (ix)
   0CDA C6 01         [ 7] 2159 	add	a, #0x01
   0CDC DD 77 FC      [19] 2160 	ld	-4 (ix),a
   0CDF DD 7E FF      [19] 2161 	ld	a,-1 (ix)
   0CE2 CE 00         [ 7] 2162 	adc	a, #0x00
   0CE4 DD 77 FD      [19] 2163 	ld	-3 (ix),a
   0CE7 DD 6E FC      [19] 2164 	ld	l,-4 (ix)
   0CEA DD 66 FD      [19] 2165 	ld	h,-3 (ix)
   0CED 36 00         [10] 2166 	ld	(hl),#0x00
   0CEF DD 7E FE      [19] 2167 	ld	a,-2 (ix)
   0CF2 C6 02         [ 7] 2168 	add	a, #0x02
   0CF4 DD 77 FC      [19] 2169 	ld	-4 (ix),a
   0CF7 DD 7E FF      [19] 2170 	ld	a,-1 (ix)
   0CFA CE 00         [ 7] 2171 	adc	a, #0x00
   0CFC DD 77 FD      [19] 2172 	ld	-3 (ix),a
   0CFF DD 6E FC      [19] 2173 	ld	l,-4 (ix)
   0D02 DD 66 FD      [19] 2174 	ld	h,-3 (ix)
   0D05 36 00         [10] 2175 	ld	(hl),#0x00
   0D07 DD 7E FE      [19] 2176 	ld	a,-2 (ix)
   0D0A C6 03         [ 7] 2177 	add	a, #0x03
   0D0C DD 77 FC      [19] 2178 	ld	-4 (ix),a
   0D0F DD 7E FF      [19] 2179 	ld	a,-1 (ix)
   0D12 CE 00         [ 7] 2180 	adc	a, #0x00
   0D14 DD 77 FD      [19] 2181 	ld	-3 (ix),a
   0D17 DD 6E FC      [19] 2182 	ld	l,-4 (ix)
   0D1A DD 66 FD      [19] 2183 	ld	h,-3 (ix)
   0D1D 36 00         [10] 2184 	ld	(hl),#0x00
   0D1F DD 7E FE      [19] 2185 	ld	a,-2 (ix)
   0D22 C6 04         [ 7] 2186 	add	a, #0x04
   0D24 DD 77 FC      [19] 2187 	ld	-4 (ix),a
   0D27 DD 7E FF      [19] 2188 	ld	a,-1 (ix)
   0D2A CE 00         [ 7] 2189 	adc	a, #0x00
   0D2C DD 77 FD      [19] 2190 	ld	-3 (ix),a
   0D2F DD 6E FC      [19] 2191 	ld	l,-4 (ix)
   0D32 DD 66 FD      [19] 2192 	ld	h,-3 (ix)
   0D35 36 00         [10] 2193 	ld	(hl),#0x00
   0D37 DD 7E FE      [19] 2194 	ld	a,-2 (ix)
   0D3A C6 05         [ 7] 2195 	add	a, #0x05
   0D3C DD 77 FC      [19] 2196 	ld	-4 (ix),a
   0D3F DD 7E FF      [19] 2197 	ld	a,-1 (ix)
   0D42 CE 00         [ 7] 2198 	adc	a, #0x00
   0D44 DD 77 FD      [19] 2199 	ld	-3 (ix),a
   0D47 DD 6E FC      [19] 2200 	ld	l,-4 (ix)
   0D4A DD 66 FD      [19] 2201 	ld	h,-3 (ix)
   0D4D 36 00         [10] 2202 	ld	(hl),#0x00
   0D4F DD 7E FE      [19] 2203 	ld	a,-2 (ix)
   0D52 C6 06         [ 7] 2204 	add	a, #0x06
   0D54 DD 77 FC      [19] 2205 	ld	-4 (ix),a
   0D57 DD 7E FF      [19] 2206 	ld	a,-1 (ix)
   0D5A CE 00         [ 7] 2207 	adc	a, #0x00
   0D5C DD 77 FD      [19] 2208 	ld	-3 (ix),a
   0D5F DD 6E FC      [19] 2209 	ld	l,-4 (ix)
   0D62 DD 66 FD      [19] 2210 	ld	h,-3 (ix)
   0D65 36 00         [10] 2211 	ld	(hl),#0x00
   0D67 DD 7E FE      [19] 2212 	ld	a,-2 (ix)
   0D6A C6 07         [ 7] 2213 	add	a, #0x07
   0D6C DD 77 FC      [19] 2214 	ld	-4 (ix),a
   0D6F DD 7E FF      [19] 2215 	ld	a,-1 (ix)
   0D72 CE 00         [ 7] 2216 	adc	a, #0x00
   0D74 DD 77 FD      [19] 2217 	ld	-3 (ix),a
   0D77 DD 6E FC      [19] 2218 	ld	l,-4 (ix)
   0D7A DD 66 FD      [19] 2219 	ld	h,-3 (ix)
   0D7D 36 00         [10] 2220 	ld	(hl),#0x00
   0D7F DD 7E FE      [19] 2221 	ld	a,-2 (ix)
   0D82 C6 08         [ 7] 2222 	add	a, #0x08
   0D84 DD 77 FC      [19] 2223 	ld	-4 (ix),a
   0D87 DD 7E FF      [19] 2224 	ld	a,-1 (ix)
   0D8A CE 00         [ 7] 2225 	adc	a, #0x00
   0D8C DD 77 FD      [19] 2226 	ld	-3 (ix),a
   0D8F DD 6E FC      [19] 2227 	ld	l,-4 (ix)
   0D92 DD 66 FD      [19] 2228 	ld	h,-3 (ix)
   0D95 36 00         [10] 2229 	ld	(hl),#0x00
   0D97 DD 7E FE      [19] 2230 	ld	a,-2 (ix)
   0D9A C6 09         [ 7] 2231 	add	a, #0x09
   0D9C DD 77 FC      [19] 2232 	ld	-4 (ix),a
   0D9F DD 7E FF      [19] 2233 	ld	a,-1 (ix)
   0DA2 CE 00         [ 7] 2234 	adc	a, #0x00
   0DA4 DD 77 FD      [19] 2235 	ld	-3 (ix),a
   0DA7 DD 6E FC      [19] 2236 	ld	l,-4 (ix)
   0DAA DD 66 FD      [19] 2237 	ld	h,-3 (ix)
   0DAD 36 00         [10] 2238 	ld	(hl),#0x00
   0DAF DD 7E FE      [19] 2239 	ld	a,-2 (ix)
   0DB2 C6 0A         [ 7] 2240 	add	a, #0x0A
   0DB4 DD 77 FC      [19] 2241 	ld	-4 (ix),a
   0DB7 DD 7E FF      [19] 2242 	ld	a,-1 (ix)
   0DBA CE 00         [ 7] 2243 	adc	a, #0x00
   0DBC DD 77 FD      [19] 2244 	ld	-3 (ix),a
   0DBF DD 6E FC      [19] 2245 	ld	l,-4 (ix)
   0DC2 DD 66 FD      [19] 2246 	ld	h,-3 (ix)
   0DC5 36 00         [10] 2247 	ld	(hl),#0x00
   0DC7 DD 7E FE      [19] 2248 	ld	a,-2 (ix)
   0DCA C6 0B         [ 7] 2249 	add	a, #0x0B
   0DCC DD 77 FC      [19] 2250 	ld	-4 (ix),a
   0DCF DD 7E FF      [19] 2251 	ld	a,-1 (ix)
   0DD2 CE 00         [ 7] 2252 	adc	a, #0x00
   0DD4 DD 77 FD      [19] 2253 	ld	-3 (ix),a
   0DD7 DD 6E FC      [19] 2254 	ld	l,-4 (ix)
   0DDA DD 66 FD      [19] 2255 	ld	h,-3 (ix)
   0DDD 36 00         [10] 2256 	ld	(hl),#0x00
   0DDF DD 7E FE      [19] 2257 	ld	a,-2 (ix)
   0DE2 C6 0C         [ 7] 2258 	add	a, #0x0C
   0DE4 DD 77 FC      [19] 2259 	ld	-4 (ix),a
   0DE7 DD 7E FF      [19] 2260 	ld	a,-1 (ix)
   0DEA CE 00         [ 7] 2261 	adc	a, #0x00
   0DEC DD 77 FD      [19] 2262 	ld	-3 (ix),a
   0DEF DD 6E FC      [19] 2263 	ld	l,-4 (ix)
   0DF2 DD 66 FD      [19] 2264 	ld	h,-3 (ix)
   0DF5 36 00         [10] 2265 	ld	(hl),#0x00
   0DF7 DD 7E FE      [19] 2266 	ld	a,-2 (ix)
   0DFA C6 0D         [ 7] 2267 	add	a, #0x0D
   0DFC DD 77 FC      [19] 2268 	ld	-4 (ix),a
   0DFF DD 7E FF      [19] 2269 	ld	a,-1 (ix)
   0E02 CE 00         [ 7] 2270 	adc	a, #0x00
   0E04 DD 77 FD      [19] 2271 	ld	-3 (ix),a
   0E07 DD 6E FC      [19] 2272 	ld	l,-4 (ix)
   0E0A DD 66 FD      [19] 2273 	ld	h,-3 (ix)
   0E0D 36 00         [10] 2274 	ld	(hl),#0x00
   0E0F DD 7E FE      [19] 2275 	ld	a,-2 (ix)
   0E12 C6 0E         [ 7] 2276 	add	a, #0x0E
   0E14 DD 77 FC      [19] 2277 	ld	-4 (ix),a
   0E17 DD 7E FF      [19] 2278 	ld	a,-1 (ix)
   0E1A CE 00         [ 7] 2279 	adc	a, #0x00
   0E1C DD 77 FD      [19] 2280 	ld	-3 (ix),a
   0E1F DD 6E FC      [19] 2281 	ld	l,-4 (ix)
   0E22 DD 66 FD      [19] 2282 	ld	h,-3 (ix)
   0E25 36 00         [10] 2283 	ld	(hl),#0x00
   0E27 DD 7E FE      [19] 2284 	ld	a,-2 (ix)
   0E2A C6 0F         [ 7] 2285 	add	a, #0x0F
   0E2C DD 77 FC      [19] 2286 	ld	-4 (ix),a
   0E2F DD 7E FF      [19] 2287 	ld	a,-1 (ix)
   0E32 CE 00         [ 7] 2288 	adc	a, #0x00
   0E34 DD 77 FD      [19] 2289 	ld	-3 (ix),a
   0E37 DD 6E FC      [19] 2290 	ld	l,-4 (ix)
   0E3A DD 66 FD      [19] 2291 	ld	h,-3 (ix)
   0E3D 36 00         [10] 2292 	ld	(hl),#0x00
   0E3F DD 7E FE      [19] 2293 	ld	a,-2 (ix)
   0E42 C6 10         [ 7] 2294 	add	a, #0x10
   0E44 DD 77 FC      [19] 2295 	ld	-4 (ix),a
   0E47 DD 7E FF      [19] 2296 	ld	a,-1 (ix)
   0E4A CE 00         [ 7] 2297 	adc	a, #0x00
   0E4C DD 77 FD      [19] 2298 	ld	-3 (ix),a
   0E4F DD 6E FC      [19] 2299 	ld	l,-4 (ix)
   0E52 DD 66 FD      [19] 2300 	ld	h,-3 (ix)
   0E55 36 00         [10] 2301 	ld	(hl),#0x00
   0E57 DD 7E FE      [19] 2302 	ld	a,-2 (ix)
   0E5A C6 11         [ 7] 2303 	add	a, #0x11
   0E5C DD 77 FC      [19] 2304 	ld	-4 (ix),a
   0E5F DD 7E FF      [19] 2305 	ld	a,-1 (ix)
   0E62 CE 00         [ 7] 2306 	adc	a, #0x00
   0E64 DD 77 FD      [19] 2307 	ld	-3 (ix),a
   0E67 DD 6E FC      [19] 2308 	ld	l,-4 (ix)
   0E6A DD 66 FD      [19] 2309 	ld	h,-3 (ix)
   0E6D 36 00         [10] 2310 	ld	(hl),#0x00
   0E6F DD 7E FE      [19] 2311 	ld	a,-2 (ix)
   0E72 C6 12         [ 7] 2312 	add	a, #0x12
   0E74 DD 77 FC      [19] 2313 	ld	-4 (ix),a
   0E77 DD 7E FF      [19] 2314 	ld	a,-1 (ix)
   0E7A CE 00         [ 7] 2315 	adc	a, #0x00
   0E7C DD 77 FD      [19] 2316 	ld	-3 (ix),a
   0E7F DD 6E FC      [19] 2317 	ld	l,-4 (ix)
   0E82 DD 66 FD      [19] 2318 	ld	h,-3 (ix)
   0E85 36 00         [10] 2319 	ld	(hl),#0x00
   0E87 DD 7E FE      [19] 2320 	ld	a,-2 (ix)
   0E8A C6 13         [ 7] 2321 	add	a, #0x13
   0E8C DD 77 FC      [19] 2322 	ld	-4 (ix),a
   0E8F DD 7E FF      [19] 2323 	ld	a,-1 (ix)
   0E92 CE 00         [ 7] 2324 	adc	a, #0x00
   0E94 DD 77 FD      [19] 2325 	ld	-3 (ix),a
   0E97 DD 6E FC      [19] 2326 	ld	l,-4 (ix)
   0E9A DD 66 FD      [19] 2327 	ld	h,-3 (ix)
   0E9D 36 00         [10] 2328 	ld	(hl),#0x00
   0E9F DD 7E FE      [19] 2329 	ld	a,-2 (ix)
   0EA2 C6 14         [ 7] 2330 	add	a, #0x14
   0EA4 DD 77 FC      [19] 2331 	ld	-4 (ix),a
   0EA7 DD 7E FF      [19] 2332 	ld	a,-1 (ix)
   0EAA CE 00         [ 7] 2333 	adc	a, #0x00
   0EAC DD 77 FD      [19] 2334 	ld	-3 (ix),a
   0EAF DD 6E FC      [19] 2335 	ld	l,-4 (ix)
   0EB2 DD 66 FD      [19] 2336 	ld	h,-3 (ix)
   0EB5 36 00         [10] 2337 	ld	(hl),#0x00
   0EB7 DD 7E FE      [19] 2338 	ld	a,-2 (ix)
   0EBA C6 15         [ 7] 2339 	add	a, #0x15
   0EBC DD 77 FC      [19] 2340 	ld	-4 (ix),a
   0EBF DD 7E FF      [19] 2341 	ld	a,-1 (ix)
   0EC2 CE 00         [ 7] 2342 	adc	a, #0x00
   0EC4 DD 77 FD      [19] 2343 	ld	-3 (ix),a
   0EC7 DD 6E FC      [19] 2344 	ld	l,-4 (ix)
   0ECA DD 66 FD      [19] 2345 	ld	h,-3 (ix)
   0ECD 36 00         [10] 2346 	ld	(hl),#0x00
   0ECF DD 7E FE      [19] 2347 	ld	a,-2 (ix)
   0ED2 C6 16         [ 7] 2348 	add	a, #0x16
   0ED4 DD 77 FC      [19] 2349 	ld	-4 (ix),a
   0ED7 DD 7E FF      [19] 2350 	ld	a,-1 (ix)
   0EDA CE 00         [ 7] 2351 	adc	a, #0x00
   0EDC DD 77 FD      [19] 2352 	ld	-3 (ix),a
   0EDF DD 6E FC      [19] 2353 	ld	l,-4 (ix)
   0EE2 DD 66 FD      [19] 2354 	ld	h,-3 (ix)
   0EE5 36 00         [10] 2355 	ld	(hl),#0x00
   0EE7 DD 7E FE      [19] 2356 	ld	a,-2 (ix)
   0EEA C6 17         [ 7] 2357 	add	a, #0x17
   0EEC DD 77 FC      [19] 2358 	ld	-4 (ix),a
   0EEF DD 7E FF      [19] 2359 	ld	a,-1 (ix)
   0EF2 CE 00         [ 7] 2360 	adc	a, #0x00
   0EF4 DD 77 FD      [19] 2361 	ld	-3 (ix),a
   0EF7 DD 6E FC      [19] 2362 	ld	l,-4 (ix)
   0EFA DD 66 FD      [19] 2363 	ld	h,-3 (ix)
   0EFD 36 00         [10] 2364 	ld	(hl),#0x00
   0EFF DD 7E FE      [19] 2365 	ld	a,-2 (ix)
   0F02 C6 18         [ 7] 2366 	add	a, #0x18
   0F04 DD 77 FC      [19] 2367 	ld	-4 (ix),a
   0F07 DD 7E FF      [19] 2368 	ld	a,-1 (ix)
   0F0A CE 00         [ 7] 2369 	adc	a, #0x00
   0F0C DD 77 FD      [19] 2370 	ld	-3 (ix),a
   0F0F DD 6E FC      [19] 2371 	ld	l,-4 (ix)
   0F12 DD 66 FD      [19] 2372 	ld	h,-3 (ix)
   0F15 36 00         [10] 2373 	ld	(hl),#0x00
   0F17 DD 7E FE      [19] 2374 	ld	a,-2 (ix)
   0F1A C6 19         [ 7] 2375 	add	a, #0x19
   0F1C DD 77 FC      [19] 2376 	ld	-4 (ix),a
   0F1F DD 7E FF      [19] 2377 	ld	a,-1 (ix)
   0F22 CE 00         [ 7] 2378 	adc	a, #0x00
   0F24 DD 77 FD      [19] 2379 	ld	-3 (ix),a
   0F27 DD 6E FC      [19] 2380 	ld	l,-4 (ix)
   0F2A DD 66 FD      [19] 2381 	ld	h,-3 (ix)
   0F2D 36 00         [10] 2382 	ld	(hl),#0x00
   0F2F DD 7E FE      [19] 2383 	ld	a,-2 (ix)
   0F32 C6 1A         [ 7] 2384 	add	a, #0x1A
   0F34 DD 77 FC      [19] 2385 	ld	-4 (ix),a
   0F37 DD 7E FF      [19] 2386 	ld	a,-1 (ix)
   0F3A CE 00         [ 7] 2387 	adc	a, #0x00
   0F3C DD 77 FD      [19] 2388 	ld	-3 (ix),a
   0F3F DD 6E FC      [19] 2389 	ld	l,-4 (ix)
   0F42 DD 66 FD      [19] 2390 	ld	h,-3 (ix)
   0F45 36 00         [10] 2391 	ld	(hl),#0x00
   0F47 DD 7E FE      [19] 2392 	ld	a,-2 (ix)
   0F4A C6 1B         [ 7] 2393 	add	a, #0x1B
   0F4C DD 77 FC      [19] 2394 	ld	-4 (ix),a
   0F4F DD 7E FF      [19] 2395 	ld	a,-1 (ix)
   0F52 CE 00         [ 7] 2396 	adc	a, #0x00
   0F54 DD 77 FD      [19] 2397 	ld	-3 (ix),a
   0F57 DD 6E FC      [19] 2398 	ld	l,-4 (ix)
   0F5A DD 66 FD      [19] 2399 	ld	h,-3 (ix)
   0F5D 36 00         [10] 2400 	ld	(hl),#0x00
   0F5F DD 7E FE      [19] 2401 	ld	a,-2 (ix)
   0F62 C6 1C         [ 7] 2402 	add	a, #0x1C
   0F64 DD 77 FC      [19] 2403 	ld	-4 (ix),a
   0F67 DD 7E FF      [19] 2404 	ld	a,-1 (ix)
   0F6A CE 00         [ 7] 2405 	adc	a, #0x00
   0F6C DD 77 FD      [19] 2406 	ld	-3 (ix),a
   0F6F DD 6E FC      [19] 2407 	ld	l,-4 (ix)
   0F72 DD 66 FD      [19] 2408 	ld	h,-3 (ix)
   0F75 36 00         [10] 2409 	ld	(hl),#0x00
   0F77 DD 7E FE      [19] 2410 	ld	a,-2 (ix)
   0F7A C6 1D         [ 7] 2411 	add	a, #0x1D
   0F7C DD 77 FC      [19] 2412 	ld	-4 (ix),a
   0F7F DD 7E FF      [19] 2413 	ld	a,-1 (ix)
   0F82 CE 00         [ 7] 2414 	adc	a, #0x00
   0F84 DD 77 FD      [19] 2415 	ld	-3 (ix),a
   0F87 DD 6E FC      [19] 2416 	ld	l,-4 (ix)
   0F8A DD 66 FD      [19] 2417 	ld	h,-3 (ix)
   0F8D 36 00         [10] 2418 	ld	(hl),#0x00
   0F8F DD 7E FE      [19] 2419 	ld	a,-2 (ix)
   0F92 C6 1E         [ 7] 2420 	add	a, #0x1E
   0F94 DD 77 FC      [19] 2421 	ld	-4 (ix),a
   0F97 DD 7E FF      [19] 2422 	ld	a,-1 (ix)
   0F9A CE 00         [ 7] 2423 	adc	a, #0x00
   0F9C DD 77 FD      [19] 2424 	ld	-3 (ix),a
   0F9F DD 6E FC      [19] 2425 	ld	l,-4 (ix)
   0FA2 DD 66 FD      [19] 2426 	ld	h,-3 (ix)
   0FA5 36 00         [10] 2427 	ld	(hl),#0x00
   0FA7 DD 7E FE      [19] 2428 	ld	a,-2 (ix)
   0FAA C6 1F         [ 7] 2429 	add	a, #0x1F
   0FAC DD 77 FC      [19] 2430 	ld	-4 (ix),a
   0FAF DD 7E FF      [19] 2431 	ld	a,-1 (ix)
   0FB2 CE 00         [ 7] 2432 	adc	a, #0x00
   0FB4 DD 77 FD      [19] 2433 	ld	-3 (ix),a
   0FB7 DD 6E FC      [19] 2434 	ld	l,-4 (ix)
   0FBA DD 66 FD      [19] 2435 	ld	h,-3 (ix)
   0FBD 36 00         [10] 2436 	ld	(hl),#0x00
                           2437 ;ec25519.c:703: unsigned char one[32] = {1};
   0FBF 21 00 00      [10] 2438 	ld	hl,#0x0000
   0FC2 39            [11] 2439 	add	hl,sp
   0FC3 DD 75 FC      [19] 2440 	ld	-4 (ix),l
   0FC6 DD 74 FD      [19] 2441 	ld	-3 (ix),h
   0FC9 DD 6E FC      [19] 2442 	ld	l,-4 (ix)
   0FCC DD 66 FD      [19] 2443 	ld	h,-3 (ix)
   0FCF 36 01         [10] 2444 	ld	(hl),#0x01
   0FD1 DD 7E FC      [19] 2445 	ld	a,-4 (ix)
   0FD4 C6 01         [ 7] 2446 	add	a, #0x01
   0FD6 DD 77 FA      [19] 2447 	ld	-6 (ix),a
   0FD9 DD 7E FD      [19] 2448 	ld	a,-3 (ix)
   0FDC CE 00         [ 7] 2449 	adc	a, #0x00
   0FDE DD 77 FB      [19] 2450 	ld	-5 (ix),a
   0FE1 DD 6E FA      [19] 2451 	ld	l,-6 (ix)
   0FE4 DD 66 FB      [19] 2452 	ld	h,-5 (ix)
   0FE7 36 00         [10] 2453 	ld	(hl),#0x00
   0FE9 DD 7E FC      [19] 2454 	ld	a,-4 (ix)
   0FEC C6 02         [ 7] 2455 	add	a, #0x02
   0FEE DD 77 FA      [19] 2456 	ld	-6 (ix),a
   0FF1 DD 7E FD      [19] 2457 	ld	a,-3 (ix)
   0FF4 CE 00         [ 7] 2458 	adc	a, #0x00
   0FF6 DD 77 FB      [19] 2459 	ld	-5 (ix),a
   0FF9 DD 6E FA      [19] 2460 	ld	l,-6 (ix)
   0FFC DD 66 FB      [19] 2461 	ld	h,-5 (ix)
   0FFF 36 00         [10] 2462 	ld	(hl),#0x00
   1001 DD 7E FC      [19] 2463 	ld	a,-4 (ix)
   1004 C6 03         [ 7] 2464 	add	a, #0x03
   1006 DD 77 FA      [19] 2465 	ld	-6 (ix),a
   1009 DD 7E FD      [19] 2466 	ld	a,-3 (ix)
   100C CE 00         [ 7] 2467 	adc	a, #0x00
   100E DD 77 FB      [19] 2468 	ld	-5 (ix),a
   1011 DD 6E FA      [19] 2469 	ld	l,-6 (ix)
   1014 DD 66 FB      [19] 2470 	ld	h,-5 (ix)
   1017 36 00         [10] 2471 	ld	(hl),#0x00
   1019 DD 7E FC      [19] 2472 	ld	a,-4 (ix)
   101C C6 04         [ 7] 2473 	add	a, #0x04
   101E DD 77 FA      [19] 2474 	ld	-6 (ix),a
   1021 DD 7E FD      [19] 2475 	ld	a,-3 (ix)
   1024 CE 00         [ 7] 2476 	adc	a, #0x00
   1026 DD 77 FB      [19] 2477 	ld	-5 (ix),a
   1029 DD 6E FA      [19] 2478 	ld	l,-6 (ix)
   102C DD 66 FB      [19] 2479 	ld	h,-5 (ix)
   102F 36 00         [10] 2480 	ld	(hl),#0x00
   1031 DD 7E FC      [19] 2481 	ld	a,-4 (ix)
   1034 C6 05         [ 7] 2482 	add	a, #0x05
   1036 DD 77 FA      [19] 2483 	ld	-6 (ix),a
   1039 DD 7E FD      [19] 2484 	ld	a,-3 (ix)
   103C CE 00         [ 7] 2485 	adc	a, #0x00
   103E DD 77 FB      [19] 2486 	ld	-5 (ix),a
   1041 DD 6E FA      [19] 2487 	ld	l,-6 (ix)
   1044 DD 66 FB      [19] 2488 	ld	h,-5 (ix)
   1047 36 00         [10] 2489 	ld	(hl),#0x00
   1049 DD 7E FC      [19] 2490 	ld	a,-4 (ix)
   104C C6 06         [ 7] 2491 	add	a, #0x06
   104E DD 77 FA      [19] 2492 	ld	-6 (ix),a
   1051 DD 7E FD      [19] 2493 	ld	a,-3 (ix)
   1054 CE 00         [ 7] 2494 	adc	a, #0x00
   1056 DD 77 FB      [19] 2495 	ld	-5 (ix),a
   1059 DD 6E FA      [19] 2496 	ld	l,-6 (ix)
   105C DD 66 FB      [19] 2497 	ld	h,-5 (ix)
   105F 36 00         [10] 2498 	ld	(hl),#0x00
   1061 DD 7E FC      [19] 2499 	ld	a,-4 (ix)
   1064 C6 07         [ 7] 2500 	add	a, #0x07
   1066 DD 77 FA      [19] 2501 	ld	-6 (ix),a
   1069 DD 7E FD      [19] 2502 	ld	a,-3 (ix)
   106C CE 00         [ 7] 2503 	adc	a, #0x00
   106E DD 77 FB      [19] 2504 	ld	-5 (ix),a
   1071 DD 6E FA      [19] 2505 	ld	l,-6 (ix)
   1074 DD 66 FB      [19] 2506 	ld	h,-5 (ix)
   1077 36 00         [10] 2507 	ld	(hl),#0x00
   1079 DD 7E FC      [19] 2508 	ld	a,-4 (ix)
   107C C6 08         [ 7] 2509 	add	a, #0x08
   107E DD 77 FA      [19] 2510 	ld	-6 (ix),a
   1081 DD 7E FD      [19] 2511 	ld	a,-3 (ix)
   1084 CE 00         [ 7] 2512 	adc	a, #0x00
   1086 DD 77 FB      [19] 2513 	ld	-5 (ix),a
   1089 DD 6E FA      [19] 2514 	ld	l,-6 (ix)
   108C DD 66 FB      [19] 2515 	ld	h,-5 (ix)
   108F 36 00         [10] 2516 	ld	(hl),#0x00
   1091 DD 7E FC      [19] 2517 	ld	a,-4 (ix)
   1094 C6 09         [ 7] 2518 	add	a, #0x09
   1096 DD 77 FA      [19] 2519 	ld	-6 (ix),a
   1099 DD 7E FD      [19] 2520 	ld	a,-3 (ix)
   109C CE 00         [ 7] 2521 	adc	a, #0x00
   109E DD 77 FB      [19] 2522 	ld	-5 (ix),a
   10A1 DD 6E FA      [19] 2523 	ld	l,-6 (ix)
   10A4 DD 66 FB      [19] 2524 	ld	h,-5 (ix)
   10A7 36 00         [10] 2525 	ld	(hl),#0x00
   10A9 DD 7E FC      [19] 2526 	ld	a,-4 (ix)
   10AC C6 0A         [ 7] 2527 	add	a, #0x0A
   10AE DD 77 FA      [19] 2528 	ld	-6 (ix),a
   10B1 DD 7E FD      [19] 2529 	ld	a,-3 (ix)
   10B4 CE 00         [ 7] 2530 	adc	a, #0x00
   10B6 DD 77 FB      [19] 2531 	ld	-5 (ix),a
   10B9 DD 6E FA      [19] 2532 	ld	l,-6 (ix)
   10BC DD 66 FB      [19] 2533 	ld	h,-5 (ix)
   10BF 36 00         [10] 2534 	ld	(hl),#0x00
   10C1 DD 7E FC      [19] 2535 	ld	a,-4 (ix)
   10C4 C6 0B         [ 7] 2536 	add	a, #0x0B
   10C6 DD 77 FA      [19] 2537 	ld	-6 (ix),a
   10C9 DD 7E FD      [19] 2538 	ld	a,-3 (ix)
   10CC CE 00         [ 7] 2539 	adc	a, #0x00
   10CE DD 77 FB      [19] 2540 	ld	-5 (ix),a
   10D1 DD 6E FA      [19] 2541 	ld	l,-6 (ix)
   10D4 DD 66 FB      [19] 2542 	ld	h,-5 (ix)
   10D7 36 00         [10] 2543 	ld	(hl),#0x00
   10D9 DD 7E FC      [19] 2544 	ld	a,-4 (ix)
   10DC C6 0C         [ 7] 2545 	add	a, #0x0C
   10DE DD 77 FA      [19] 2546 	ld	-6 (ix),a
   10E1 DD 7E FD      [19] 2547 	ld	a,-3 (ix)
   10E4 CE 00         [ 7] 2548 	adc	a, #0x00
   10E6 DD 77 FB      [19] 2549 	ld	-5 (ix),a
   10E9 DD 6E FA      [19] 2550 	ld	l,-6 (ix)
   10EC DD 66 FB      [19] 2551 	ld	h,-5 (ix)
   10EF 36 00         [10] 2552 	ld	(hl),#0x00
   10F1 DD 7E FC      [19] 2553 	ld	a,-4 (ix)
   10F4 C6 0D         [ 7] 2554 	add	a, #0x0D
   10F6 DD 77 FA      [19] 2555 	ld	-6 (ix),a
   10F9 DD 7E FD      [19] 2556 	ld	a,-3 (ix)
   10FC CE 00         [ 7] 2557 	adc	a, #0x00
   10FE DD 77 FB      [19] 2558 	ld	-5 (ix),a
   1101 DD 6E FA      [19] 2559 	ld	l,-6 (ix)
   1104 DD 66 FB      [19] 2560 	ld	h,-5 (ix)
   1107 36 00         [10] 2561 	ld	(hl),#0x00
   1109 DD 7E FC      [19] 2562 	ld	a,-4 (ix)
   110C C6 0E         [ 7] 2563 	add	a, #0x0E
   110E DD 77 FA      [19] 2564 	ld	-6 (ix),a
   1111 DD 7E FD      [19] 2565 	ld	a,-3 (ix)
   1114 CE 00         [ 7] 2566 	adc	a, #0x00
   1116 DD 77 FB      [19] 2567 	ld	-5 (ix),a
   1119 DD 6E FA      [19] 2568 	ld	l,-6 (ix)
   111C DD 66 FB      [19] 2569 	ld	h,-5 (ix)
   111F 36 00         [10] 2570 	ld	(hl),#0x00
   1121 DD 7E FC      [19] 2571 	ld	a,-4 (ix)
   1124 C6 0F         [ 7] 2572 	add	a, #0x0F
   1126 DD 77 FA      [19] 2573 	ld	-6 (ix),a
   1129 DD 7E FD      [19] 2574 	ld	a,-3 (ix)
   112C CE 00         [ 7] 2575 	adc	a, #0x00
   112E DD 77 FB      [19] 2576 	ld	-5 (ix),a
   1131 DD 6E FA      [19] 2577 	ld	l,-6 (ix)
   1134 DD 66 FB      [19] 2578 	ld	h,-5 (ix)
   1137 36 00         [10] 2579 	ld	(hl),#0x00
   1139 DD 7E FC      [19] 2580 	ld	a,-4 (ix)
   113C C6 10         [ 7] 2581 	add	a, #0x10
   113E DD 77 FA      [19] 2582 	ld	-6 (ix),a
   1141 DD 7E FD      [19] 2583 	ld	a,-3 (ix)
   1144 CE 00         [ 7] 2584 	adc	a, #0x00
   1146 DD 77 FB      [19] 2585 	ld	-5 (ix),a
   1149 DD 6E FA      [19] 2586 	ld	l,-6 (ix)
   114C DD 66 FB      [19] 2587 	ld	h,-5 (ix)
   114F 36 00         [10] 2588 	ld	(hl),#0x00
   1151 DD 7E FC      [19] 2589 	ld	a,-4 (ix)
   1154 C6 11         [ 7] 2590 	add	a, #0x11
   1156 DD 77 FA      [19] 2591 	ld	-6 (ix),a
   1159 DD 7E FD      [19] 2592 	ld	a,-3 (ix)
   115C CE 00         [ 7] 2593 	adc	a, #0x00
   115E DD 77 FB      [19] 2594 	ld	-5 (ix),a
   1161 DD 6E FA      [19] 2595 	ld	l,-6 (ix)
   1164 DD 66 FB      [19] 2596 	ld	h,-5 (ix)
   1167 36 00         [10] 2597 	ld	(hl),#0x00
   1169 DD 7E FC      [19] 2598 	ld	a,-4 (ix)
   116C C6 12         [ 7] 2599 	add	a, #0x12
   116E DD 77 FA      [19] 2600 	ld	-6 (ix),a
   1171 DD 7E FD      [19] 2601 	ld	a,-3 (ix)
   1174 CE 00         [ 7] 2602 	adc	a, #0x00
   1176 DD 77 FB      [19] 2603 	ld	-5 (ix),a
   1179 DD 6E FA      [19] 2604 	ld	l,-6 (ix)
   117C DD 66 FB      [19] 2605 	ld	h,-5 (ix)
   117F 36 00         [10] 2606 	ld	(hl),#0x00
   1181 DD 7E FC      [19] 2607 	ld	a,-4 (ix)
   1184 C6 13         [ 7] 2608 	add	a, #0x13
   1186 DD 77 FA      [19] 2609 	ld	-6 (ix),a
   1189 DD 7E FD      [19] 2610 	ld	a,-3 (ix)
   118C CE 00         [ 7] 2611 	adc	a, #0x00
   118E DD 77 FB      [19] 2612 	ld	-5 (ix),a
   1191 DD 6E FA      [19] 2613 	ld	l,-6 (ix)
   1194 DD 66 FB      [19] 2614 	ld	h,-5 (ix)
   1197 36 00         [10] 2615 	ld	(hl),#0x00
   1199 DD 7E FC      [19] 2616 	ld	a,-4 (ix)
   119C C6 14         [ 7] 2617 	add	a, #0x14
   119E DD 77 FA      [19] 2618 	ld	-6 (ix),a
   11A1 DD 7E FD      [19] 2619 	ld	a,-3 (ix)
   11A4 CE 00         [ 7] 2620 	adc	a, #0x00
   11A6 DD 77 FB      [19] 2621 	ld	-5 (ix),a
   11A9 DD 6E FA      [19] 2622 	ld	l,-6 (ix)
   11AC DD 66 FB      [19] 2623 	ld	h,-5 (ix)
   11AF 36 00         [10] 2624 	ld	(hl),#0x00
   11B1 DD 7E FC      [19] 2625 	ld	a,-4 (ix)
   11B4 C6 15         [ 7] 2626 	add	a, #0x15
   11B6 DD 77 FA      [19] 2627 	ld	-6 (ix),a
   11B9 DD 7E FD      [19] 2628 	ld	a,-3 (ix)
   11BC CE 00         [ 7] 2629 	adc	a, #0x00
   11BE DD 77 FB      [19] 2630 	ld	-5 (ix),a
   11C1 DD 6E FA      [19] 2631 	ld	l,-6 (ix)
   11C4 DD 66 FB      [19] 2632 	ld	h,-5 (ix)
   11C7 36 00         [10] 2633 	ld	(hl),#0x00
   11C9 DD 7E FC      [19] 2634 	ld	a,-4 (ix)
   11CC C6 16         [ 7] 2635 	add	a, #0x16
   11CE DD 77 FA      [19] 2636 	ld	-6 (ix),a
   11D1 DD 7E FD      [19] 2637 	ld	a,-3 (ix)
   11D4 CE 00         [ 7] 2638 	adc	a, #0x00
   11D6 DD 77 FB      [19] 2639 	ld	-5 (ix),a
   11D9 DD 6E FA      [19] 2640 	ld	l,-6 (ix)
   11DC DD 66 FB      [19] 2641 	ld	h,-5 (ix)
   11DF 36 00         [10] 2642 	ld	(hl),#0x00
   11E1 DD 7E FC      [19] 2643 	ld	a,-4 (ix)
   11E4 C6 17         [ 7] 2644 	add	a, #0x17
   11E6 DD 77 FA      [19] 2645 	ld	-6 (ix),a
   11E9 DD 7E FD      [19] 2646 	ld	a,-3 (ix)
   11EC CE 00         [ 7] 2647 	adc	a, #0x00
   11EE DD 77 FB      [19] 2648 	ld	-5 (ix),a
   11F1 DD 6E FA      [19] 2649 	ld	l,-6 (ix)
   11F4 DD 66 FB      [19] 2650 	ld	h,-5 (ix)
   11F7 36 00         [10] 2651 	ld	(hl),#0x00
   11F9 DD 7E FC      [19] 2652 	ld	a,-4 (ix)
   11FC C6 18         [ 7] 2653 	add	a, #0x18
   11FE DD 77 FA      [19] 2654 	ld	-6 (ix),a
   1201 DD 7E FD      [19] 2655 	ld	a,-3 (ix)
   1204 CE 00         [ 7] 2656 	adc	a, #0x00
   1206 DD 77 FB      [19] 2657 	ld	-5 (ix),a
   1209 DD 6E FA      [19] 2658 	ld	l,-6 (ix)
   120C DD 66 FB      [19] 2659 	ld	h,-5 (ix)
   120F 36 00         [10] 2660 	ld	(hl),#0x00
   1211 DD 7E FC      [19] 2661 	ld	a,-4 (ix)
   1214 C6 19         [ 7] 2662 	add	a, #0x19
   1216 DD 77 FA      [19] 2663 	ld	-6 (ix),a
   1219 DD 7E FD      [19] 2664 	ld	a,-3 (ix)
   121C CE 00         [ 7] 2665 	adc	a, #0x00
   121E DD 77 FB      [19] 2666 	ld	-5 (ix),a
   1221 DD 6E FA      [19] 2667 	ld	l,-6 (ix)
   1224 DD 66 FB      [19] 2668 	ld	h,-5 (ix)
   1227 36 00         [10] 2669 	ld	(hl),#0x00
   1229 DD 7E FC      [19] 2670 	ld	a,-4 (ix)
   122C C6 1A         [ 7] 2671 	add	a, #0x1A
   122E DD 77 FA      [19] 2672 	ld	-6 (ix),a
   1231 DD 7E FD      [19] 2673 	ld	a,-3 (ix)
   1234 CE 00         [ 7] 2674 	adc	a, #0x00
   1236 DD 77 FB      [19] 2675 	ld	-5 (ix),a
   1239 DD 6E FA      [19] 2676 	ld	l,-6 (ix)
   123C DD 66 FB      [19] 2677 	ld	h,-5 (ix)
   123F 36 00         [10] 2678 	ld	(hl),#0x00
   1241 DD 7E FC      [19] 2679 	ld	a,-4 (ix)
   1244 C6 1B         [ 7] 2680 	add	a, #0x1B
   1246 DD 77 FA      [19] 2681 	ld	-6 (ix),a
   1249 DD 7E FD      [19] 2682 	ld	a,-3 (ix)
   124C CE 00         [ 7] 2683 	adc	a, #0x00
   124E DD 77 FB      [19] 2684 	ld	-5 (ix),a
   1251 DD 6E FA      [19] 2685 	ld	l,-6 (ix)
   1254 DD 66 FB      [19] 2686 	ld	h,-5 (ix)
   1257 36 00         [10] 2687 	ld	(hl),#0x00
   1259 DD 7E FC      [19] 2688 	ld	a,-4 (ix)
   125C C6 1C         [ 7] 2689 	add	a, #0x1C
   125E DD 77 FA      [19] 2690 	ld	-6 (ix),a
   1261 DD 7E FD      [19] 2691 	ld	a,-3 (ix)
   1264 CE 00         [ 7] 2692 	adc	a, #0x00
   1266 DD 77 FB      [19] 2693 	ld	-5 (ix),a
   1269 DD 6E FA      [19] 2694 	ld	l,-6 (ix)
   126C DD 66 FB      [19] 2695 	ld	h,-5 (ix)
   126F 36 00         [10] 2696 	ld	(hl),#0x00
   1271 DD 7E FC      [19] 2697 	ld	a,-4 (ix)
   1274 C6 1D         [ 7] 2698 	add	a, #0x1D
   1276 DD 77 FA      [19] 2699 	ld	-6 (ix),a
   1279 DD 7E FD      [19] 2700 	ld	a,-3 (ix)
   127C CE 00         [ 7] 2701 	adc	a, #0x00
   127E DD 77 FB      [19] 2702 	ld	-5 (ix),a
   1281 DD 6E FA      [19] 2703 	ld	l,-6 (ix)
   1284 DD 66 FB      [19] 2704 	ld	h,-5 (ix)
   1287 36 00         [10] 2705 	ld	(hl),#0x00
   1289 DD 7E FC      [19] 2706 	ld	a,-4 (ix)
   128C C6 1E         [ 7] 2707 	add	a, #0x1E
   128E DD 77 FA      [19] 2708 	ld	-6 (ix),a
   1291 DD 7E FD      [19] 2709 	ld	a,-3 (ix)
   1294 CE 00         [ 7] 2710 	adc	a, #0x00
   1296 DD 77 FB      [19] 2711 	ld	-5 (ix),a
   1299 DD 6E FA      [19] 2712 	ld	l,-6 (ix)
   129C DD 66 FB      [19] 2713 	ld	h,-5 (ix)
   129F 36 00         [10] 2714 	ld	(hl),#0x00
   12A1 DD 7E FC      [19] 2715 	ld	a,-4 (ix)
   12A4 C6 1F         [ 7] 2716 	add	a, #0x1F
   12A6 DD 77 FA      [19] 2717 	ld	-6 (ix),a
   12A9 DD 7E FD      [19] 2718 	ld	a,-3 (ix)
   12AC CE 00         [ 7] 2719 	adc	a, #0x00
   12AE DD 77 FB      [19] 2720 	ld	-5 (ix),a
   12B1 DD 6E FA      [19] 2721 	ld	l,-6 (ix)
   12B4 DD 66 FB      [19] 2722 	ld	h,-5 (ix)
   12B7 36 00         [10] 2723 	ld	(hl),#0x00
                           2724 ;ec25519.c:705: ldr( xm, base ); ldr( zm, one );
   12B9 DD 7E FE      [19] 2725 	ld	a,-2 (ix)
   12BC DD 77 FA      [19] 2726 	ld	-6 (ix),a
   12BF DD 7E FF      [19] 2727 	ld	a,-1 (ix)
   12C2 DD 77 FB      [19] 2728 	ld	-5 (ix),a
   12C5 21r40r00      [10] 2729 	ld	hl,#_xm
   12C8 DD 4E FA      [19] 2730 	ld	c,-6 (ix)
   12CB DD 46 FB      [19] 2731 	ld	b,-5 (ix)
   12CE C5            [11] 2732 	push	bc
   12CF E5            [11] 2733 	push	hl
   12D0 CDr19r09      [17] 2734 	call	_ldr
   12D3 F1            [10] 2735 	pop	af
   12D4 F1            [10] 2736 	pop	af
   12D5 DD 7E FC      [19] 2737 	ld	a,-4 (ix)
   12D8 DD 77 FA      [19] 2738 	ld	-6 (ix),a
   12DB DD 7E FD      [19] 2739 	ld	a,-3 (ix)
   12DE DD 77 FB      [19] 2740 	ld	-5 (ix),a
   12E1 21r60r00      [10] 2741 	ld	hl,#_zm
   12E4 DD 4E FA      [19] 2742 	ld	c,-6 (ix)
   12E7 DD 46 FB      [19] 2743 	ld	b,-5 (ix)
   12EA C5            [11] 2744 	push	bc
   12EB E5            [11] 2745 	push	hl
   12EC CDr19r09      [17] 2746 	call	_ldr
   12EF F1            [10] 2747 	pop	af
   12F0 F1            [10] 2748 	pop	af
                           2749 ;ec25519.c:706: ldr( xn, base ); ldr( zn, one );
   12F1 DD 7E FE      [19] 2750 	ld	a,-2 (ix)
   12F4 DD 77 FA      [19] 2751 	ld	-6 (ix),a
   12F7 DD 7E FF      [19] 2752 	ld	a,-1 (ix)
   12FA DD 77 FB      [19] 2753 	ld	-5 (ix),a
   12FD 21r00r00      [10] 2754 	ld	hl,#_xn
   1300 DD 4E FA      [19] 2755 	ld	c,-6 (ix)
   1303 DD 46 FB      [19] 2756 	ld	b,-5 (ix)
   1306 C5            [11] 2757 	push	bc
   1307 E5            [11] 2758 	push	hl
   1308 CDr19r09      [17] 2759 	call	_ldr
   130B F1            [10] 2760 	pop	af
   130C F1            [10] 2761 	pop	af
   130D DD 7E FC      [19] 2762 	ld	a,-4 (ix)
   1310 DD 77 FA      [19] 2763 	ld	-6 (ix),a
   1313 DD 7E FD      [19] 2764 	ld	a,-3 (ix)
   1316 DD 77 FB      [19] 2765 	ld	-5 (ix),a
   1319 21r20r00      [10] 2766 	ld	hl,#_zn
   131C DD 4E FA      [19] 2767 	ld	c,-6 (ix)
   131F DD 46 FB      [19] 2768 	ld	b,-5 (ix)
   1322 C5            [11] 2769 	push	bc
   1323 E5            [11] 2770 	push	hl
   1324 CDr19r09      [17] 2771 	call	_ldr
   1327 F1            [10] 2772 	pop	af
   1328 F1            [10] 2773 	pop	af
                           2774 ;ec25519.c:707: ecc_double( xn, zn );
   1329 21r00r00      [10] 2775 	ld	hl,#_xn
   132C 01r20r00      [10] 2776 	ld	bc,#_zn
   132F C5            [11] 2777 	push	bc
   1330 E5            [11] 2778 	push	hl
   1331 CDrBBr09      [17] 2779 	call	_ecc_double
   1334 F1            [10] 2780 	pop	af
                           2781 ;ec25519.c:709: print_gfx( 140 );
   1335 26 8C         [ 7] 2782 	ld	h,#0x8C
   1337 E3            [19] 2783 	ex	(sp),hl
   1338 33            [ 6] 2784 	inc	sp
   1339 CDr9Br02      [17] 2785 	call	_print_gfx
   133C 33            [ 6] 2786 	inc	sp
                           2787 ;ec25519.c:712: for( j=31; 0==key[j]; j-- )
   133D DD 36 EC 1F   [19] 2788 	ld	-20 (ix),#0x1F
   1341                    2789 00116$:
   1341 DD 7E 04      [19] 2790 	ld	a,4 (ix)
   1344 DD 86 EC      [19] 2791 	add	a, -20 (ix)
   1347 6F            [ 4] 2792 	ld	l,a
   1348 DD 7E 05      [19] 2793 	ld	a,5 (ix)
   134B CE 00         [ 7] 2794 	adc	a, #0x00
   134D 67            [ 4] 2795 	ld	h,a
   134E 66            [ 7] 2796 	ld	h,(hl)
   134F 7C            [ 4] 2797 	ld	a,h
   1350 B7            [ 4] 2798 	or	a, a
   1351 20 05         [12] 2799 	jr	NZ,00144$
   1353 DD 35 EC      [23] 2800 	dec	-20 (ix)
   1356 18 E9         [12] 2801 	jr	00116$
   1358                    2802 00144$:
                           2803 ;ec25519.c:715: k = key[j];
   1358 DD 74 EB      [19] 2804 	ld	-21 (ix),h
                           2805 ;ec25519.c:716: for( i=7; 0==( (k>>i)&1 ); i-- )
   135B DD 36 ED 07   [19] 2806 	ld	-19 (ix),#0x07
   135F                    2807 00119$:
   135F DD 46 ED      [19] 2808 	ld	b,-19 (ix)
   1362 F5            [11] 2809 	push	af
   1363 DD 66 EB      [19] 2810 	ld	h,-21 (ix)
   1366 F1            [10] 2811 	pop	af
   1367 04            [ 4] 2812 	inc	b
   1368 18 02         [12] 2813 	jr	00178$
   136A                    2814 00177$:
   136A CB 3C         [ 8] 2815 	srl	h
   136C                    2816 00178$:
   136C 10 FC         [13] 2817 	djnz	00177$
   136E 7C            [ 4] 2818 	ld	a,h
   136F E6 01         [ 7] 2819 	and	a, #0x01
   1371 6F            [ 4] 2820 	ld	l,a
   1372 DD 66 ED      [19] 2821 	ld	h,-19 (ix)
   1375 25            [ 4] 2822 	dec	h
   1376 7D            [ 4] 2823 	ld	a,l
   1377 B7            [ 4] 2824 	or	a, a
   1378 20 05         [12] 2825 	jr	NZ,00102$
   137A DD 74 ED      [19] 2826 	ld	-19 (ix),h
   137D 18 E0         [12] 2827 	jr	00119$
   137F                    2828 00102$:
                           2829 ;ec25519.c:718: for( --i; i>=0; i-- ){
   137F DD 74 FA      [19] 2830 	ld	-6 (ix),h
   1382 DD 7E FC      [19] 2831 	ld	a,-4 (ix)
   1385 DD 77 F8      [19] 2832 	ld	-8 (ix),a
   1388 DD 7E FD      [19] 2833 	ld	a,-3 (ix)
   138B DD 77 F9      [19] 2834 	ld	-7 (ix),a
   138E DD 7E FE      [19] 2835 	ld	a,-2 (ix)
   1391 DD 77 F6      [19] 2836 	ld	-10 (ix),a
   1394 DD 7E FF      [19] 2837 	ld	a,-1 (ix)
   1397 DD 77 F7      [19] 2838 	ld	-9 (ix),a
   139A DD 7E FC      [19] 2839 	ld	a,-4 (ix)
   139D DD 77 F4      [19] 2840 	ld	-12 (ix),a
   13A0 DD 7E FD      [19] 2841 	ld	a,-3 (ix)
   13A3 DD 77 F5      [19] 2842 	ld	-11 (ix),a
   13A6 DD 7E FE      [19] 2843 	ld	a,-2 (ix)
   13A9 DD 77 F2      [19] 2844 	ld	-14 (ix),a
   13AC DD 7E FF      [19] 2845 	ld	a,-1 (ix)
   13AF DD 77 F3      [19] 2846 	ld	-13 (ix),a
   13B2                    2847 00122$:
   13B2 DD CB FA 7E   [20] 2848 	bit	7, -6 (ix)
   13B6 C2r57r14      [10] 2849 	jp	NZ,00106$
                           2850 ;ec25519.c:719: val = (k>>i)&1;
   13B9 DD 46 FA      [19] 2851 	ld	b,-6 (ix)
   13BC F5            [11] 2852 	push	af
   13BD DD 66 EB      [19] 2853 	ld	h,-21 (ix)
   13C0 F1            [10] 2854 	pop	af
   13C1 04            [ 4] 2855 	inc	b
   13C2 18 02         [12] 2856 	jr	00182$
   13C4                    2857 00181$:
   13C4 CB 3C         [ 8] 2858 	srl	h
   13C6                    2859 00182$:
   13C6 10 FC         [13] 2860 	djnz	00181$
   13C8 7C            [ 4] 2861 	ld	a,h
   13C9 E6 01         [ 7] 2862 	and	a, #0x01
                           2863 ;ec25519.c:720: if( 1==val ){
   13CB DD 77 EA      [19] 2864 	ld	-22 (ix), a
   13CE 3D            [ 4] 2865 	dec	a
   13CF 20 35         [12] 2866 	jr	NZ,00104$
                           2867 ;ec25519.c:721: ecc_add( xm, zm, xn, zn, base, one );
   13D1 DD 6E F4      [19] 2868 	ld	l,-12 (ix)
   13D4 DD 66 F5      [19] 2869 	ld	h,-11 (ix)
   13D7 DD 5E F2      [19] 2870 	ld	e,-14 (ix)
   13DA DD 56 F3      [19] 2871 	ld	d,-13 (ix)
   13DD 01r00r00      [10] 2872 	ld	bc,#_xn
   13E0 E5            [11] 2873 	push	hl
   13E1 D5            [11] 2874 	push	de
   13E2 21r20r00      [10] 2875 	ld	hl,#_zn
   13E5 E5            [11] 2876 	push	hl
   13E6 C5            [11] 2877 	push	bc
   13E7 21r60r00      [10] 2878 	ld	hl,#_zm
   13EA E5            [11] 2879 	push	hl
   13EB 21r40r00      [10] 2880 	ld	hl,#_xm
   13EE E5            [11] 2881 	push	hl
   13EF CDr06r0B      [17] 2882 	call	_ecc_add
   13F2 21 0C 00      [10] 2883 	ld	hl,#0x000C
   13F5 39            [11] 2884 	add	hl,sp
   13F6 F9            [ 6] 2885 	ld	sp,hl
                           2886 ;ec25519.c:722: ecc_double( xn, zn );
   13F7 21r20r00      [10] 2887 	ld	hl,#_zn
   13FA 11r00r00      [10] 2888 	ld	de,#_xn
   13FD E5            [11] 2889 	push	hl
   13FE D5            [11] 2890 	push	de
   13FF CDrBBr09      [17] 2891 	call	_ecc_double
   1402 F1            [10] 2892 	pop	af
   1403 F1            [10] 2893 	pop	af
   1404 18 4B         [12] 2894 	jr	00123$
   1406                    2895 00104$:
                           2896 ;ec25519.c:725: ecc_add( xn, zn, xm, zm, base, one );
   1406 DD 7E F8      [19] 2897 	ld	a,-8 (ix)
   1409 DD 77 F0      [19] 2898 	ld	-16 (ix),a
   140C DD 7E F9      [19] 2899 	ld	a,-7 (ix)
   140F DD 77 F1      [19] 2900 	ld	-15 (ix),a
   1412 DD 7E F6      [19] 2901 	ld	a,-10 (ix)
   1415 DD 77 EE      [19] 2902 	ld	-18 (ix),a
   1418 DD 7E F7      [19] 2903 	ld	a,-9 (ix)
   141B DD 77 EF      [19] 2904 	ld	-17 (ix),a
   141E DD 6E F0      [19] 2905 	ld	l,-16 (ix)
   1421 DD 66 F1      [19] 2906 	ld	h,-15 (ix)
   1424 E5            [11] 2907 	push	hl
   1425 DD 6E EE      [19] 2908 	ld	l,-18 (ix)
   1428 DD 66 EF      [19] 2909 	ld	h,-17 (ix)
   142B E5            [11] 2910 	push	hl
   142C 21r60r00      [10] 2911 	ld	hl,#_zm
   142F E5            [11] 2912 	push	hl
   1430 21r40r00      [10] 2913 	ld	hl,#_xm
   1433 E5            [11] 2914 	push	hl
   1434 21r20r00      [10] 2915 	ld	hl,#_zn
   1437 E5            [11] 2916 	push	hl
   1438 21r00r00      [10] 2917 	ld	hl,#_xn
   143B E5            [11] 2918 	push	hl
   143C CDr06r0B      [17] 2919 	call	_ecc_add
   143F 21 0C 00      [10] 2920 	ld	hl,#0x000C
   1442 39            [11] 2921 	add	hl,sp
   1443 F9            [ 6] 2922 	ld	sp,hl
                           2923 ;ec25519.c:726: ecc_double( xm, zm );
   1444 21r40r00      [10] 2924 	ld	hl,#_xm
   1447 01r60r00      [10] 2925 	ld	bc,#_zm
   144A C5            [11] 2926 	push	bc
   144B E5            [11] 2927 	push	hl
   144C CDrBBr09      [17] 2928 	call	_ecc_double
   144F F1            [10] 2929 	pop	af
   1450 F1            [10] 2930 	pop	af
   1451                    2931 00123$:
                           2932 ;ec25519.c:718: for( --i; i>=0; i-- ){
   1451 DD 35 FA      [23] 2933 	dec	-6 (ix)
   1454 C3rB2r13      [10] 2934 	jp	00122$
   1457                    2935 00106$:
                           2936 ;ec25519.c:730: for( --j; j>=0; j-- ){
   1457 DD 7E EC      [19] 2937 	ld	a,-20 (ix)
   145A C6 FF         [ 7] 2938 	add	a,#0xFF
   145C DD 77 EE      [19] 2939 	ld	-18 (ix),a
   145F DD 7E FC      [19] 2940 	ld	a,-4 (ix)
   1462 DD 77 F0      [19] 2941 	ld	-16 (ix),a
   1465 DD 7E FD      [19] 2942 	ld	a,-3 (ix)
   1468 DD 77 F1      [19] 2943 	ld	-15 (ix),a
   146B DD 7E FE      [19] 2944 	ld	a,-2 (ix)
   146E DD 77 F2      [19] 2945 	ld	-14 (ix),a
   1471 DD 7E FF      [19] 2946 	ld	a,-1 (ix)
   1474 DD 77 F3      [19] 2947 	ld	-13 (ix),a
   1477 DD 7E FC      [19] 2948 	ld	a,-4 (ix)
   147A DD 77 F4      [19] 2949 	ld	-12 (ix),a
   147D DD 7E FD      [19] 2950 	ld	a,-3 (ix)
   1480 DD 77 F5      [19] 2951 	ld	-11 (ix),a
   1483 DD 7E FE      [19] 2952 	ld	a,-2 (ix)
   1486 DD 77 F6      [19] 2953 	ld	-10 (ix),a
   1489 DD 7E FF      [19] 2954 	ld	a,-1 (ix)
   148C DD 77 F7      [19] 2955 	ld	-9 (ix),a
   148F                    2956 00127$:
   148F DD CB EE 7E   [20] 2957 	bit	7, -18 (ix)
   1493 C2r81r15      [10] 2958 	jp	NZ,00114$
                           2959 ;ec25519.c:732: print_gfx( 140 );
   1496 3E 8C         [ 7] 2960 	ld	a,#0x8C
   1498 F5            [11] 2961 	push	af
   1499 33            [ 6] 2962 	inc	sp
   149A CDr9Br02      [17] 2963 	call	_print_gfx
   149D 33            [ 6] 2964 	inc	sp
                           2965 ;ec25519.c:734: k = key[j];
   149E DD 7E 04      [19] 2966 	ld	a,4 (ix)
   14A1 DD 86 EE      [19] 2967 	add	a, -18 (ix)
   14A4 6F            [ 4] 2968 	ld	l,a
   14A5 DD 7E 05      [19] 2969 	ld	a,5 (ix)
   14A8 CE 00         [ 7] 2970 	adc	a, #0x00
   14AA 67            [ 4] 2971 	ld	h,a
   14AB 7E            [ 7] 2972 	ld	a,(hl)
   14AC DD 77 EB      [19] 2973 	ld	-21 (ix),a
                           2974 ;ec25519.c:735: for( i=7; i>=0; i-- ){
   14AF DD 36 ED 07   [19] 2975 	ld	-19 (ix),#0x07
   14B3                    2976 00124$:
                           2977 ;ec25519.c:737: if( 1==(i%2) ){
   14B3 3E 02         [ 7] 2978 	ld	a,#0x02
   14B5 F5            [11] 2979 	push	af
   14B6 33            [ 6] 2980 	inc	sp
   14B7 DD 7E ED      [19] 2981 	ld	a,-19 (ix)
   14BA F5            [11] 2982 	push	af
   14BB 33            [ 6] 2983 	inc	sp
   14BC CDr00r00      [17] 2984 	call	__moduschar_rrx_s
   14BF F1            [10] 2985 	pop	af
   14C0 2D            [ 4] 2986 	dec	l
   14C1 20 12         [12] 2987 	jr	NZ,00108$
                           2988 ;ec25519.c:738: print_gfx( 8 );
   14C3 3E 08         [ 7] 2989 	ld	a,#0x08
   14C5 F5            [11] 2990 	push	af
   14C6 33            [ 6] 2991 	inc	sp
   14C7 CDr9Br02      [17] 2992 	call	_print_gfx
   14CA 33            [ 6] 2993 	inc	sp
                           2994 ;ec25519.c:739: print_gfx( 128 );
   14CB 3E 80         [ 7] 2995 	ld	a,#0x80
   14CD F5            [11] 2996 	push	af
   14CE 33            [ 6] 2997 	inc	sp
   14CF CDr9Br02      [17] 2998 	call	_print_gfx
   14D2 33            [ 6] 2999 	inc	sp
   14D3 18 10         [12] 3000 	jr	00109$
   14D5                    3001 00108$:
                           3002 ;ec25519.c:742: print_gfx( 8 );
   14D5 3E 08         [ 7] 3003 	ld	a,#0x08
   14D7 F5            [11] 3004 	push	af
   14D8 33            [ 6] 3005 	inc	sp
   14D9 CDr9Br02      [17] 3006 	call	_print_gfx
   14DC 33            [ 6] 3007 	inc	sp
                           3008 ;ec25519.c:743: print_gfx( 140 );
   14DD 3E 8C         [ 7] 3009 	ld	a,#0x8C
   14DF F5            [11] 3010 	push	af
   14E0 33            [ 6] 3011 	inc	sp
   14E1 CDr9Br02      [17] 3012 	call	_print_gfx
   14E4 33            [ 6] 3013 	inc	sp
   14E5                    3014 00109$:
                           3015 ;ec25519.c:746: val = (k>>i)&1;
   14E5 DD 46 ED      [19] 3016 	ld	b,-19 (ix)
   14E8 F5            [11] 3017 	push	af
   14E9 DD 66 EB      [19] 3018 	ld	h,-21 (ix)
   14EC F1            [10] 3019 	pop	af
   14ED 04            [ 4] 3020 	inc	b
   14EE 18 02         [12] 3021 	jr	00188$
   14F0                    3022 00187$:
   14F0 CB 3C         [ 8] 3023 	srl	h
   14F2                    3024 00188$:
   14F2 10 FC         [13] 3025 	djnz	00187$
   14F4 7C            [ 4] 3026 	ld	a,h
   14F5 E6 01         [ 7] 3027 	and	a, #0x01
                           3028 ;ec25519.c:747: if( 1==val ){
   14F7 DD 77 EA      [19] 3029 	ld	-22 (ix), a
   14FA 3D            [ 4] 3030 	dec	a
   14FB 20 35         [12] 3031 	jr	NZ,00111$
                           3032 ;ec25519.c:748: ecc_add( xm, zm, xn, zn, base, one );
   14FD DD 4E F4      [19] 3033 	ld	c,-12 (ix)
   1500 DD 46 F5      [19] 3034 	ld	b,-11 (ix)
   1503 DD 5E F6      [19] 3035 	ld	e,-10 (ix)
   1506 DD 56 F7      [19] 3036 	ld	d,-9 (ix)
   1509 21r40r00      [10] 3037 	ld	hl,#_xm
   150C C5            [11] 3038 	push	bc
   150D D5            [11] 3039 	push	de
   150E 01r20r00      [10] 3040 	ld	bc,#_zn
   1511 C5            [11] 3041 	push	bc
   1512 01r00r00      [10] 3042 	ld	bc,#_xn
   1515 C5            [11] 3043 	push	bc
   1516 01r60r00      [10] 3044 	ld	bc,#_zm
   1519 C5            [11] 3045 	push	bc
   151A E5            [11] 3046 	push	hl
   151B CDr06r0B      [17] 3047 	call	_ecc_add
   151E 21 0C 00      [10] 3048 	ld	hl,#0x000C
   1521 39            [11] 3049 	add	hl,sp
   1522 F9            [ 6] 3050 	ld	sp,hl
                           3051 ;ec25519.c:749: ecc_double( xn, zn );
   1523 21r00r00      [10] 3052 	ld	hl,#_xn
   1526 01r20r00      [10] 3053 	ld	bc,#_zn
   1529 C5            [11] 3054 	push	bc
   152A E5            [11] 3055 	push	hl
   152B CDrBBr09      [17] 3056 	call	_ecc_double
   152E F1            [10] 3057 	pop	af
   152F F1            [10] 3058 	pop	af
   1530 18 3F         [12] 3059 	jr	00125$
   1532                    3060 00111$:
                           3061 ;ec25519.c:752: ecc_add( xn, zn, xm, zm, base, one );
   1532 DD 7E F0      [19] 3062 	ld	a,-16 (ix)
   1535 DD 77 F8      [19] 3063 	ld	-8 (ix),a
   1538 DD 7E F1      [19] 3064 	ld	a,-15 (ix)
   153B DD 77 F9      [19] 3065 	ld	-7 (ix),a
   153E DD 5E F2      [19] 3066 	ld	e,-14 (ix)
   1541 DD 56 F3      [19] 3067 	ld	d,-13 (ix)
   1544 21r20r00      [10] 3068 	ld	hl,#_zn
   1547 DD 4E F8      [19] 3069 	ld	c,-8 (ix)
   154A DD 46 F9      [19] 3070 	ld	b,-7 (ix)
   154D C5            [11] 3071 	push	bc
   154E D5            [11] 3072 	push	de
   154F 01r60r00      [10] 3073 	ld	bc,#_zm
   1552 C5            [11] 3074 	push	bc
   1553 01r40r00      [10] 3075 	ld	bc,#_xm
   1556 C5            [11] 3076 	push	bc
   1557 E5            [11] 3077 	push	hl
   1558 21r00r00      [10] 3078 	ld	hl,#_xn
   155B E5            [11] 3079 	push	hl
   155C CDr06r0B      [17] 3080 	call	_ecc_add
   155F 21 0C 00      [10] 3081 	ld	hl,#0x000C
   1562 39            [11] 3082 	add	hl,sp
   1563 F9            [ 6] 3083 	ld	sp,hl
                           3084 ;ec25519.c:753: ecc_double( xm, zm );
   1564 21r40r00      [10] 3085 	ld	hl,#_xm
   1567 01r60r00      [10] 3086 	ld	bc,#_zm
   156A C5            [11] 3087 	push	bc
   156B E5            [11] 3088 	push	hl
   156C CDrBBr09      [17] 3089 	call	_ecc_double
   156F F1            [10] 3090 	pop	af
   1570 F1            [10] 3091 	pop	af
   1571                    3092 00125$:
                           3093 ;ec25519.c:735: for( i=7; i>=0; i-- ){
   1571 DD 35 ED      [23] 3094 	dec	-19 (ix)
   1574 DD CB ED 7E   [20] 3095 	bit	7, -19 (ix)
   1578 CArB3r14      [10] 3096 	jp	Z,00124$
                           3097 ;ec25519.c:730: for( --j; j>=0; j-- ){
   157B DD 35 EE      [23] 3098 	dec	-18 (ix)
   157E C3r8Fr14      [10] 3099 	jp	00127$
   1581                    3100 00114$:
                           3101 ;ec25519.c:758: print_crlf();
   1581 CDr95r02      [17] 3102 	call	_print_crlf
   1584 DD F9         [10] 3103 	ld	sp,ix
   1586 DD E1         [14] 3104 	pop	ix
   1588 C9            [10] 3105 	ret
   1589                    3106 _ecc_seqsmult_end::
                           3107 ;ec25519.c:766: void recip(unsigned char *out, unsigned char *z)
                           3108 ;	---------------------------------
                           3109 ; Function recip
                           3110 ; ---------------------------------
   1589                    3111 _recip_start::
   1589                    3112 _recip:
   1589 DD E5         [15] 3113 	push	ix
   158B DD 21 00 00   [14] 3114 	ld	ix,#0
   158F DD 39         [15] 3115 	add	ix,sp
   1591 3B            [ 6] 3116 	dec	sp
                           3117 ;ec25519.c:774: t0 = tx2; t1 = tz2; z2 = txz;
                           3118 ;ec25519.c:775: /* 2 */ square(z2,z);
   1592 21r04r01      [10] 3119 	ld	hl,#_a
   1595 DD 4E 06      [19] 3120 	ld	c,6 (ix)
   1598 DD 46 07      [19] 3121 	ld	b,7 (ix)
   159B C5            [11] 3122 	push	bc
   159C E5            [11] 3123 	push	hl
   159D CDr19r09      [17] 3124 	call	_ldr
   15A0 F1            [10] 3125 	pop	af
   15A1 F1            [10] 3126 	pop	af
   15A2 21r24r01      [10] 3127 	ld	hl,#_b
   15A5 DD 4E 06      [19] 3128 	ld	c,6 (ix)
   15A8 DD 46 07      [19] 3129 	ld	b,7 (ix)
   15AB C5            [11] 3130 	push	bc
   15AC E5            [11] 3131 	push	hl
   15AD CDr19r09      [17] 3132 	call	_ldr
   15B0 F1            [10] 3133 	pop	af
   15B1 F1            [10] 3134 	pop	af
   15B2 CDr13r09      [17] 3135 	call	_modmul
   15B5 21rE3r00      [10] 3136 	ld	hl,#_t33
   15B8 E5            [11] 3137 	push	hl
   15B9 21rC2r00      [10] 3138 	ld	hl,#_txz
   15BC E5            [11] 3139 	push	hl
   15BD CDr19r09      [17] 3140 	call	_ldr
   15C0 F1            [10] 3141 	pop	af
   15C1 F1            [10] 3142 	pop	af
                           3143 ;ec25519.c:776: /* 4 */ square(t1,z2);
   15C2 21r04r01      [10] 3144 	ld	hl,#_a
   15C5 01rC2r00      [10] 3145 	ld	bc,#_txz
   15C8 C5            [11] 3146 	push	bc
   15C9 E5            [11] 3147 	push	hl
   15CA CDr19r09      [17] 3148 	call	_ldr
   15CD F1            [10] 3149 	pop	af
   15CE F1            [10] 3150 	pop	af
   15CF 21r24r01      [10] 3151 	ld	hl,#_b
   15D2 01rC2r00      [10] 3152 	ld	bc,#_txz
   15D5 C5            [11] 3153 	push	bc
   15D6 E5            [11] 3154 	push	hl
   15D7 CDr19r09      [17] 3155 	call	_ldr
   15DA F1            [10] 3156 	pop	af
   15DB F1            [10] 3157 	pop	af
   15DC CDr13r09      [17] 3158 	call	_modmul
   15DF 21rE3r00      [10] 3159 	ld	hl,#_t33
   15E2 E5            [11] 3160 	push	hl
   15E3 21rA1r00      [10] 3161 	ld	hl,#_tz2
   15E6 E5            [11] 3162 	push	hl
   15E7 CDr19r09      [17] 3163 	call	_ldr
   15EA F1            [10] 3164 	pop	af
   15EB F1            [10] 3165 	pop	af
                           3166 ;ec25519.c:777: /* 8 */ square(t0,t1);
   15EC 21r04r01      [10] 3167 	ld	hl,#_a
   15EF 01rA1r00      [10] 3168 	ld	bc,#_tz2
   15F2 C5            [11] 3169 	push	bc
   15F3 E5            [11] 3170 	push	hl
   15F4 CDr19r09      [17] 3171 	call	_ldr
   15F7 F1            [10] 3172 	pop	af
   15F8 F1            [10] 3173 	pop	af
   15F9 21r24r01      [10] 3174 	ld	hl,#_b
   15FC 01rA1r00      [10] 3175 	ld	bc,#_tz2
   15FF C5            [11] 3176 	push	bc
   1600 E5            [11] 3177 	push	hl
   1601 CDr19r09      [17] 3178 	call	_ldr
   1604 F1            [10] 3179 	pop	af
   1605 F1            [10] 3180 	pop	af
   1606 CDr13r09      [17] 3181 	call	_modmul
   1609 21rE3r00      [10] 3182 	ld	hl,#_t33
   160C E5            [11] 3183 	push	hl
   160D 21r80r00      [10] 3184 	ld	hl,#_tx2
   1610 E5            [11] 3185 	push	hl
   1611 CDr19r09      [17] 3186 	call	_ldr
   1614 F1            [10] 3187 	pop	af
   1615 F1            [10] 3188 	pop	af
                           3189 ;ec25519.c:778: /* 9 */ mult(z9,t0,z);
   1616 21r04r01      [10] 3190 	ld	hl,#_a
   1619 01r80r00      [10] 3191 	ld	bc,#_tx2
   161C C5            [11] 3192 	push	bc
   161D E5            [11] 3193 	push	hl
   161E CDr19r09      [17] 3194 	call	_ldr
   1621 F1            [10] 3195 	pop	af
   1622 F1            [10] 3196 	pop	af
   1623 21r24r01      [10] 3197 	ld	hl,#_b
   1626 DD 4E 06      [19] 3198 	ld	c,6 (ix)
   1629 DD 46 07      [19] 3199 	ld	b,7 (ix)
   162C C5            [11] 3200 	push	bc
   162D E5            [11] 3201 	push	hl
   162E CDr19r09      [17] 3202 	call	_ldr
   1631 F1            [10] 3203 	pop	af
   1632 F1            [10] 3204 	pop	af
   1633 CDr13r09      [17] 3205 	call	_modmul
   1636 21r84r01      [10] 3206 	ld	hl,#_z9
   1639 01rE3r00      [10] 3207 	ld	bc,#_t33
   163C C5            [11] 3208 	push	bc
   163D E5            [11] 3209 	push	hl
   163E CDr19r09      [17] 3210 	call	_ldr
   1641 F1            [10] 3211 	pop	af
   1642 F1            [10] 3212 	pop	af
                           3213 ;ec25519.c:779: /* 11 */ mult(z11,z9,z2);
   1643 21r04r01      [10] 3214 	ld	hl,#_a
   1646 01r84r01      [10] 3215 	ld	bc,#_z9
   1649 C5            [11] 3216 	push	bc
   164A E5            [11] 3217 	push	hl
   164B CDr19r09      [17] 3218 	call	_ldr
   164E F1            [10] 3219 	pop	af
   164F F1            [10] 3220 	pop	af
   1650 21r24r01      [10] 3221 	ld	hl,#_b
   1653 01rC2r00      [10] 3222 	ld	bc,#_txz
   1656 C5            [11] 3223 	push	bc
   1657 E5            [11] 3224 	push	hl
   1658 CDr19r09      [17] 3225 	call	_ldr
   165B F1            [10] 3226 	pop	af
   165C F1            [10] 3227 	pop	af
   165D CDr13r09      [17] 3228 	call	_modmul
   1660 21rA4r01      [10] 3229 	ld	hl,#_z11
   1663 01rE3r00      [10] 3230 	ld	bc,#_t33
   1666 C5            [11] 3231 	push	bc
   1667 E5            [11] 3232 	push	hl
   1668 CDr19r09      [17] 3233 	call	_ldr
   166B F1            [10] 3234 	pop	af
   166C F1            [10] 3235 	pop	af
                           3236 ;ec25519.c:780: /* 22 */ square(t0,z11);
   166D 21r04r01      [10] 3237 	ld	hl,#_a
   1670 01rA4r01      [10] 3238 	ld	bc,#_z11
   1673 C5            [11] 3239 	push	bc
   1674 E5            [11] 3240 	push	hl
   1675 CDr19r09      [17] 3241 	call	_ldr
   1678 F1            [10] 3242 	pop	af
   1679 F1            [10] 3243 	pop	af
   167A 21r24r01      [10] 3244 	ld	hl,#_b
   167D 01rA4r01      [10] 3245 	ld	bc,#_z11
   1680 C5            [11] 3246 	push	bc
   1681 E5            [11] 3247 	push	hl
   1682 CDr19r09      [17] 3248 	call	_ldr
   1685 F1            [10] 3249 	pop	af
   1686 F1            [10] 3250 	pop	af
   1687 CDr13r09      [17] 3251 	call	_modmul
   168A 21rE3r00      [10] 3252 	ld	hl,#_t33
   168D E5            [11] 3253 	push	hl
   168E 21r80r00      [10] 3254 	ld	hl,#_tx2
   1691 E5            [11] 3255 	push	hl
   1692 CDr19r09      [17] 3256 	call	_ldr
   1695 F1            [10] 3257 	pop	af
   1696 F1            [10] 3258 	pop	af
                           3259 ;ec25519.c:781: /* 2^5 - 2^0 = 31 */ mult(z2_5_0,t0,z9);
   1697 21r04r01      [10] 3260 	ld	hl,#_a
   169A 01r80r00      [10] 3261 	ld	bc,#_tx2
   169D C5            [11] 3262 	push	bc
   169E E5            [11] 3263 	push	hl
   169F CDr19r09      [17] 3264 	call	_ldr
   16A2 F1            [10] 3265 	pop	af
   16A3 F1            [10] 3266 	pop	af
   16A4 21r24r01      [10] 3267 	ld	hl,#_b
   16A7 01r84r01      [10] 3268 	ld	bc,#_z9
   16AA C5            [11] 3269 	push	bc
   16AB E5            [11] 3270 	push	hl
   16AC CDr19r09      [17] 3271 	call	_ldr
   16AF F1            [10] 3272 	pop	af
   16B0 F1            [10] 3273 	pop	af
   16B1 CDr13r09      [17] 3274 	call	_modmul
   16B4 21rC4r01      [10] 3275 	ld	hl,#_z2_5_0
   16B7 01rE3r00      [10] 3276 	ld	bc,#_t33
   16BA C5            [11] 3277 	push	bc
   16BB E5            [11] 3278 	push	hl
   16BC CDr19r09      [17] 3279 	call	_ldr
   16BF F1            [10] 3280 	pop	af
   16C0 F1            [10] 3281 	pop	af
                           3282 ;ec25519.c:782: /* 2^6 - 2^1 */ square(t0,z2_5_0);
   16C1 21r04r01      [10] 3283 	ld	hl,#_a
   16C4 01rC4r01      [10] 3284 	ld	bc,#_z2_5_0
   16C7 C5            [11] 3285 	push	bc
   16C8 E5            [11] 3286 	push	hl
   16C9 CDr19r09      [17] 3287 	call	_ldr
   16CC F1            [10] 3288 	pop	af
   16CD F1            [10] 3289 	pop	af
   16CE 21r24r01      [10] 3290 	ld	hl,#_b
   16D1 01rC4r01      [10] 3291 	ld	bc,#_z2_5_0
   16D4 C5            [11] 3292 	push	bc
   16D5 E5            [11] 3293 	push	hl
   16D6 CDr19r09      [17] 3294 	call	_ldr
   16D9 F1            [10] 3295 	pop	af
   16DA F1            [10] 3296 	pop	af
   16DB CDr13r09      [17] 3297 	call	_modmul
   16DE 21rE3r00      [10] 3298 	ld	hl,#_t33
   16E1 E5            [11] 3299 	push	hl
   16E2 21r80r00      [10] 3300 	ld	hl,#_tx2
   16E5 E5            [11] 3301 	push	hl
   16E6 CDr19r09      [17] 3302 	call	_ldr
   16E9 F1            [10] 3303 	pop	af
   16EA F1            [10] 3304 	pop	af
                           3305 ;ec25519.c:783: /* 2^7 - 2^2 */ square(t1,t0);
   16EB 21r04r01      [10] 3306 	ld	hl,#_a
   16EE 01r80r00      [10] 3307 	ld	bc,#_tx2
   16F1 C5            [11] 3308 	push	bc
   16F2 E5            [11] 3309 	push	hl
   16F3 CDr19r09      [17] 3310 	call	_ldr
   16F6 F1            [10] 3311 	pop	af
   16F7 F1            [10] 3312 	pop	af
   16F8 21r24r01      [10] 3313 	ld	hl,#_b
   16FB 01r80r00      [10] 3314 	ld	bc,#_tx2
   16FE C5            [11] 3315 	push	bc
   16FF E5            [11] 3316 	push	hl
   1700 CDr19r09      [17] 3317 	call	_ldr
   1703 F1            [10] 3318 	pop	af
   1704 F1            [10] 3319 	pop	af
   1705 CDr13r09      [17] 3320 	call	_modmul
   1708 21rE3r00      [10] 3321 	ld	hl,#_t33
   170B E5            [11] 3322 	push	hl
   170C 21rA1r00      [10] 3323 	ld	hl,#_tz2
   170F E5            [11] 3324 	push	hl
   1710 CDr19r09      [17] 3325 	call	_ldr
   1713 F1            [10] 3326 	pop	af
   1714 F1            [10] 3327 	pop	af
                           3328 ;ec25519.c:784: /* 2^8 - 2^3 */ square(t0,t1);
   1715 21r04r01      [10] 3329 	ld	hl,#_a
   1718 01rA1r00      [10] 3330 	ld	bc,#_tz2
   171B C5            [11] 3331 	push	bc
   171C E5            [11] 3332 	push	hl
   171D CDr19r09      [17] 3333 	call	_ldr
   1720 F1            [10] 3334 	pop	af
   1721 F1            [10] 3335 	pop	af
   1722 21r24r01      [10] 3336 	ld	hl,#_b
   1725 01rA1r00      [10] 3337 	ld	bc,#_tz2
   1728 C5            [11] 3338 	push	bc
   1729 E5            [11] 3339 	push	hl
   172A CDr19r09      [17] 3340 	call	_ldr
   172D F1            [10] 3341 	pop	af
   172E F1            [10] 3342 	pop	af
   172F CDr13r09      [17] 3343 	call	_modmul
   1732 21rE3r00      [10] 3344 	ld	hl,#_t33
   1735 E5            [11] 3345 	push	hl
   1736 21r80r00      [10] 3346 	ld	hl,#_tx2
   1739 E5            [11] 3347 	push	hl
   173A CDr19r09      [17] 3348 	call	_ldr
   173D F1            [10] 3349 	pop	af
   173E F1            [10] 3350 	pop	af
                           3351 ;ec25519.c:785: /* 2^9 - 2^4 */ square(t1,t0);
   173F 21r04r01      [10] 3352 	ld	hl,#_a
   1742 01r80r00      [10] 3353 	ld	bc,#_tx2
   1745 C5            [11] 3354 	push	bc
   1746 E5            [11] 3355 	push	hl
   1747 CDr19r09      [17] 3356 	call	_ldr
   174A F1            [10] 3357 	pop	af
   174B F1            [10] 3358 	pop	af
   174C 21r24r01      [10] 3359 	ld	hl,#_b
   174F 01r80r00      [10] 3360 	ld	bc,#_tx2
   1752 C5            [11] 3361 	push	bc
   1753 E5            [11] 3362 	push	hl
   1754 CDr19r09      [17] 3363 	call	_ldr
   1757 F1            [10] 3364 	pop	af
   1758 F1            [10] 3365 	pop	af
   1759 CDr13r09      [17] 3366 	call	_modmul
   175C 21rE3r00      [10] 3367 	ld	hl,#_t33
   175F E5            [11] 3368 	push	hl
   1760 21rA1r00      [10] 3369 	ld	hl,#_tz2
   1763 E5            [11] 3370 	push	hl
   1764 CDr19r09      [17] 3371 	call	_ldr
   1767 F1            [10] 3372 	pop	af
   1768 F1            [10] 3373 	pop	af
                           3374 ;ec25519.c:786: /* 2^10 - 2^5 */ square(t0,t1);
   1769 21r04r01      [10] 3375 	ld	hl,#_a
   176C 01rA1r00      [10] 3376 	ld	bc,#_tz2
   176F C5            [11] 3377 	push	bc
   1770 E5            [11] 3378 	push	hl
   1771 CDr19r09      [17] 3379 	call	_ldr
   1774 F1            [10] 3380 	pop	af
   1775 F1            [10] 3381 	pop	af
   1776 21r24r01      [10] 3382 	ld	hl,#_b
   1779 01rA1r00      [10] 3383 	ld	bc,#_tz2
   177C C5            [11] 3384 	push	bc
   177D E5            [11] 3385 	push	hl
   177E CDr19r09      [17] 3386 	call	_ldr
   1781 F1            [10] 3387 	pop	af
   1782 F1            [10] 3388 	pop	af
   1783 CDr13r09      [17] 3389 	call	_modmul
   1786 21rE3r00      [10] 3390 	ld	hl,#_t33
   1789 E5            [11] 3391 	push	hl
   178A 21r80r00      [10] 3392 	ld	hl,#_tx2
   178D E5            [11] 3393 	push	hl
   178E CDr19r09      [17] 3394 	call	_ldr
   1791 F1            [10] 3395 	pop	af
   1792 F1            [10] 3396 	pop	af
                           3397 ;ec25519.c:787: /* 2^10 - 2^0 */ mult(z2_10_0,t0,z2_5_0);
   1793 21r04r01      [10] 3398 	ld	hl,#_a
   1796 01r80r00      [10] 3399 	ld	bc,#_tx2
   1799 C5            [11] 3400 	push	bc
   179A E5            [11] 3401 	push	hl
   179B CDr19r09      [17] 3402 	call	_ldr
   179E F1            [10] 3403 	pop	af
   179F F1            [10] 3404 	pop	af
   17A0 21r24r01      [10] 3405 	ld	hl,#_b
   17A3 01rC4r01      [10] 3406 	ld	bc,#_z2_5_0
   17A6 C5            [11] 3407 	push	bc
   17A7 E5            [11] 3408 	push	hl
   17A8 CDr19r09      [17] 3409 	call	_ldr
   17AB F1            [10] 3410 	pop	af
   17AC F1            [10] 3411 	pop	af
   17AD CDr13r09      [17] 3412 	call	_modmul
   17B0 21rE4r01      [10] 3413 	ld	hl,#_z2_10_0
   17B3 01rE3r00      [10] 3414 	ld	bc,#_t33
   17B6 C5            [11] 3415 	push	bc
   17B7 E5            [11] 3416 	push	hl
   17B8 CDr19r09      [17] 3417 	call	_ldr
   17BB F1            [10] 3418 	pop	af
   17BC F1            [10] 3419 	pop	af
                           3420 ;ec25519.c:788: /* 2^11 - 2^1 */ square(t0,z2_10_0);
   17BD 21r04r01      [10] 3421 	ld	hl,#_a
   17C0 01rE4r01      [10] 3422 	ld	bc,#_z2_10_0
   17C3 C5            [11] 3423 	push	bc
   17C4 E5            [11] 3424 	push	hl
   17C5 CDr19r09      [17] 3425 	call	_ldr
   17C8 F1            [10] 3426 	pop	af
   17C9 F1            [10] 3427 	pop	af
   17CA 21r24r01      [10] 3428 	ld	hl,#_b
   17CD 01rE4r01      [10] 3429 	ld	bc,#_z2_10_0
   17D0 C5            [11] 3430 	push	bc
   17D1 E5            [11] 3431 	push	hl
   17D2 CDr19r09      [17] 3432 	call	_ldr
   17D5 F1            [10] 3433 	pop	af
   17D6 F1            [10] 3434 	pop	af
   17D7 CDr13r09      [17] 3435 	call	_modmul
   17DA 21rE3r00      [10] 3436 	ld	hl,#_t33
   17DD E5            [11] 3437 	push	hl
   17DE 21r80r00      [10] 3438 	ld	hl,#_tx2
   17E1 E5            [11] 3439 	push	hl
   17E2 CDr19r09      [17] 3440 	call	_ldr
   17E5 F1            [10] 3441 	pop	af
   17E6 F1            [10] 3442 	pop	af
                           3443 ;ec25519.c:789: /* 2^12 - 2^2 */ square(t1,t0);
   17E7 21r04r01      [10] 3444 	ld	hl,#_a
   17EA 01r80r00      [10] 3445 	ld	bc,#_tx2
   17ED C5            [11] 3446 	push	bc
   17EE E5            [11] 3447 	push	hl
   17EF CDr19r09      [17] 3448 	call	_ldr
   17F2 F1            [10] 3449 	pop	af
   17F3 F1            [10] 3450 	pop	af
   17F4 21r24r01      [10] 3451 	ld	hl,#_b
   17F7 01r80r00      [10] 3452 	ld	bc,#_tx2
   17FA C5            [11] 3453 	push	bc
   17FB E5            [11] 3454 	push	hl
   17FC CDr19r09      [17] 3455 	call	_ldr
   17FF F1            [10] 3456 	pop	af
   1800 F1            [10] 3457 	pop	af
   1801 CDr13r09      [17] 3458 	call	_modmul
   1804 21rE3r00      [10] 3459 	ld	hl,#_t33
   1807 E5            [11] 3460 	push	hl
   1808 21rA1r00      [10] 3461 	ld	hl,#_tz2
   180B E5            [11] 3462 	push	hl
   180C CDr19r09      [17] 3463 	call	_ldr
   180F F1            [10] 3464 	pop	af
   1810 F1            [10] 3465 	pop	af
                           3466 ;ec25519.c:790: /* 2^20 - 2^10 */ for (i = 2;i < 10;i += 2) { square(t0,t1); square(t1,t0); }
   1811 DD 36 FF 02   [19] 3467 	ld	-1 (ix),#0x02
   1815                    3468 00107$:
   1815 21r04r01      [10] 3469 	ld	hl,#_a
   1818 01rA1r00      [10] 3470 	ld	bc,#_tz2
   181B C5            [11] 3471 	push	bc
   181C E5            [11] 3472 	push	hl
   181D CDr19r09      [17] 3473 	call	_ldr
   1820 F1            [10] 3474 	pop	af
   1821 F1            [10] 3475 	pop	af
   1822 21r24r01      [10] 3476 	ld	hl,#_b
   1825 01rA1r00      [10] 3477 	ld	bc,#_tz2
   1828 C5            [11] 3478 	push	bc
   1829 E5            [11] 3479 	push	hl
   182A CDr19r09      [17] 3480 	call	_ldr
   182D F1            [10] 3481 	pop	af
   182E F1            [10] 3482 	pop	af
   182F CDr13r09      [17] 3483 	call	_modmul
   1832 21rE3r00      [10] 3484 	ld	hl,#_t33
   1835 E5            [11] 3485 	push	hl
   1836 21r80r00      [10] 3486 	ld	hl,#_tx2
   1839 E5            [11] 3487 	push	hl
   183A CDr19r09      [17] 3488 	call	_ldr
   183D F1            [10] 3489 	pop	af
   183E F1            [10] 3490 	pop	af
   183F 21r04r01      [10] 3491 	ld	hl,#_a
   1842 01r80r00      [10] 3492 	ld	bc,#_tx2
   1845 C5            [11] 3493 	push	bc
   1846 E5            [11] 3494 	push	hl
   1847 CDr19r09      [17] 3495 	call	_ldr
   184A F1            [10] 3496 	pop	af
   184B F1            [10] 3497 	pop	af
   184C 21r24r01      [10] 3498 	ld	hl,#_b
   184F 01r80r00      [10] 3499 	ld	bc,#_tx2
   1852 C5            [11] 3500 	push	bc
   1853 E5            [11] 3501 	push	hl
   1854 CDr19r09      [17] 3502 	call	_ldr
   1857 F1            [10] 3503 	pop	af
   1858 F1            [10] 3504 	pop	af
   1859 CDr13r09      [17] 3505 	call	_modmul
   185C 21rE3r00      [10] 3506 	ld	hl,#_t33
   185F E5            [11] 3507 	push	hl
   1860 21rA1r00      [10] 3508 	ld	hl,#_tz2
   1863 E5            [11] 3509 	push	hl
   1864 CDr19r09      [17] 3510 	call	_ldr
   1867 F1            [10] 3511 	pop	af
   1868 F1            [10] 3512 	pop	af
   1869 DD 34 FF      [23] 3513 	inc	-1 (ix)
   186C DD 34 FF      [23] 3514 	inc	-1 (ix)
   186F DD 7E FF      [19] 3515 	ld	a,-1 (ix)
   1872 EE 80         [ 7] 3516 	xor	a, #0x80
   1874 D6 8A         [ 7] 3517 	sub	a, #0x8A
   1876 38 9D         [12] 3518 	jr	C,00107$
                           3519 ;ec25519.c:791: /* 2^20 - 2^0 */ mult(z2_20_0,t1,z2_10_0);
   1878 21r04r01      [10] 3520 	ld	hl,#_a
   187B 01rA1r00      [10] 3521 	ld	bc,#_tz2
   187E C5            [11] 3522 	push	bc
   187F E5            [11] 3523 	push	hl
   1880 CDr19r09      [17] 3524 	call	_ldr
   1883 F1            [10] 3525 	pop	af
   1884 F1            [10] 3526 	pop	af
   1885 21r24r01      [10] 3527 	ld	hl,#_b
   1888 01rE4r01      [10] 3528 	ld	bc,#_z2_10_0
   188B C5            [11] 3529 	push	bc
   188C E5            [11] 3530 	push	hl
   188D CDr19r09      [17] 3531 	call	_ldr
   1890 F1            [10] 3532 	pop	af
   1891 F1            [10] 3533 	pop	af
   1892 CDr13r09      [17] 3534 	call	_modmul
   1895 21r04r02      [10] 3535 	ld	hl,#_z2_20_0
   1898 01rE3r00      [10] 3536 	ld	bc,#_t33
   189B C5            [11] 3537 	push	bc
   189C E5            [11] 3538 	push	hl
   189D CDr19r09      [17] 3539 	call	_ldr
   18A0 F1            [10] 3540 	pop	af
   18A1 F1            [10] 3541 	pop	af
                           3542 ;ec25519.c:792: /* 2^21 - 2^1 */ square(t0,z2_20_0);
   18A2 21r04r01      [10] 3543 	ld	hl,#_a
   18A5 01r04r02      [10] 3544 	ld	bc,#_z2_20_0
   18A8 C5            [11] 3545 	push	bc
   18A9 E5            [11] 3546 	push	hl
   18AA CDr19r09      [17] 3547 	call	_ldr
   18AD F1            [10] 3548 	pop	af
   18AE F1            [10] 3549 	pop	af
   18AF 21r24r01      [10] 3550 	ld	hl,#_b
   18B2 01r04r02      [10] 3551 	ld	bc,#_z2_20_0
   18B5 C5            [11] 3552 	push	bc
   18B6 E5            [11] 3553 	push	hl
   18B7 CDr19r09      [17] 3554 	call	_ldr
   18BA F1            [10] 3555 	pop	af
   18BB F1            [10] 3556 	pop	af
   18BC CDr13r09      [17] 3557 	call	_modmul
   18BF 21rE3r00      [10] 3558 	ld	hl,#_t33
   18C2 E5            [11] 3559 	push	hl
   18C3 21r80r00      [10] 3560 	ld	hl,#_tx2
   18C6 E5            [11] 3561 	push	hl
   18C7 CDr19r09      [17] 3562 	call	_ldr
   18CA F1            [10] 3563 	pop	af
   18CB F1            [10] 3564 	pop	af
                           3565 ;ec25519.c:793: /* 2^22 - 2^2 */ square(t1,t0);
   18CC 21r04r01      [10] 3566 	ld	hl,#_a
   18CF 01r80r00      [10] 3567 	ld	bc,#_tx2
   18D2 C5            [11] 3568 	push	bc
   18D3 E5            [11] 3569 	push	hl
   18D4 CDr19r09      [17] 3570 	call	_ldr
   18D7 F1            [10] 3571 	pop	af
   18D8 F1            [10] 3572 	pop	af
   18D9 21r24r01      [10] 3573 	ld	hl,#_b
   18DC 01r80r00      [10] 3574 	ld	bc,#_tx2
   18DF C5            [11] 3575 	push	bc
   18E0 E5            [11] 3576 	push	hl
   18E1 CDr19r09      [17] 3577 	call	_ldr
   18E4 F1            [10] 3578 	pop	af
   18E5 F1            [10] 3579 	pop	af
   18E6 CDr13r09      [17] 3580 	call	_modmul
   18E9 21rE3r00      [10] 3581 	ld	hl,#_t33
   18EC E5            [11] 3582 	push	hl
   18ED 21rA1r00      [10] 3583 	ld	hl,#_tz2
   18F0 E5            [11] 3584 	push	hl
   18F1 CDr19r09      [17] 3585 	call	_ldr
   18F4 F1            [10] 3586 	pop	af
   18F5 F1            [10] 3587 	pop	af
                           3588 ;ec25519.c:794: /* 2^40 - 2^20 */ for (i = 2;i < 20;i += 2) { square(t0,t1); square(t1,t0); }
   18F6 DD 36 FF 02   [19] 3589 	ld	-1 (ix),#0x02
   18FA                    3590 00109$:
   18FA 21r04r01      [10] 3591 	ld	hl,#_a
   18FD 01rA1r00      [10] 3592 	ld	bc,#_tz2
   1900 C5            [11] 3593 	push	bc
   1901 E5            [11] 3594 	push	hl
   1902 CDr19r09      [17] 3595 	call	_ldr
   1905 F1            [10] 3596 	pop	af
   1906 F1            [10] 3597 	pop	af
   1907 21r24r01      [10] 3598 	ld	hl,#_b
   190A 01rA1r00      [10] 3599 	ld	bc,#_tz2
   190D C5            [11] 3600 	push	bc
   190E E5            [11] 3601 	push	hl
   190F CDr19r09      [17] 3602 	call	_ldr
   1912 F1            [10] 3603 	pop	af
   1913 F1            [10] 3604 	pop	af
   1914 CDr13r09      [17] 3605 	call	_modmul
   1917 21rE3r00      [10] 3606 	ld	hl,#_t33
   191A E5            [11] 3607 	push	hl
   191B 21r80r00      [10] 3608 	ld	hl,#_tx2
   191E E5            [11] 3609 	push	hl
   191F CDr19r09      [17] 3610 	call	_ldr
   1922 F1            [10] 3611 	pop	af
   1923 F1            [10] 3612 	pop	af
   1924 21r04r01      [10] 3613 	ld	hl,#_a
   1927 01r80r00      [10] 3614 	ld	bc,#_tx2
   192A C5            [11] 3615 	push	bc
   192B E5            [11] 3616 	push	hl
   192C CDr19r09      [17] 3617 	call	_ldr
   192F F1            [10] 3618 	pop	af
   1930 F1            [10] 3619 	pop	af
   1931 21r24r01      [10] 3620 	ld	hl,#_b
   1934 01r80r00      [10] 3621 	ld	bc,#_tx2
   1937 C5            [11] 3622 	push	bc
   1938 E5            [11] 3623 	push	hl
   1939 CDr19r09      [17] 3624 	call	_ldr
   193C F1            [10] 3625 	pop	af
   193D F1            [10] 3626 	pop	af
   193E CDr13r09      [17] 3627 	call	_modmul
   1941 21rE3r00      [10] 3628 	ld	hl,#_t33
   1944 E5            [11] 3629 	push	hl
   1945 21rA1r00      [10] 3630 	ld	hl,#_tz2
   1948 E5            [11] 3631 	push	hl
   1949 CDr19r09      [17] 3632 	call	_ldr
   194C F1            [10] 3633 	pop	af
   194D F1            [10] 3634 	pop	af
   194E DD 34 FF      [23] 3635 	inc	-1 (ix)
   1951 DD 34 FF      [23] 3636 	inc	-1 (ix)
   1954 DD 7E FF      [19] 3637 	ld	a,-1 (ix)
   1957 EE 80         [ 7] 3638 	xor	a, #0x80
   1959 D6 94         [ 7] 3639 	sub	a, #0x94
   195B 38 9D         [12] 3640 	jr	C,00109$
                           3641 ;ec25519.c:795: /* 2^40 - 2^0 */ mult(t0,t1,z2_20_0); // 45 iterations
   195D 21r04r01      [10] 3642 	ld	hl,#_a
   1960 01rA1r00      [10] 3643 	ld	bc,#_tz2
   1963 C5            [11] 3644 	push	bc
   1964 E5            [11] 3645 	push	hl
   1965 CDr19r09      [17] 3646 	call	_ldr
   1968 F1            [10] 3647 	pop	af
   1969 F1            [10] 3648 	pop	af
   196A 21r24r01      [10] 3649 	ld	hl,#_b
   196D 01r04r02      [10] 3650 	ld	bc,#_z2_20_0
   1970 C5            [11] 3651 	push	bc
   1971 E5            [11] 3652 	push	hl
   1972 CDr19r09      [17] 3653 	call	_ldr
   1975 F1            [10] 3654 	pop	af
   1976 F1            [10] 3655 	pop	af
   1977 CDr13r09      [17] 3656 	call	_modmul
   197A 21rE3r00      [10] 3657 	ld	hl,#_t33
   197D E5            [11] 3658 	push	hl
   197E 21r80r00      [10] 3659 	ld	hl,#_tx2
   1981 E5            [11] 3660 	push	hl
   1982 CDr19r09      [17] 3661 	call	_ldr
   1985 F1            [10] 3662 	pop	af
   1986 F1            [10] 3663 	pop	af
                           3664 ;ec25519.c:796: /* 2^41 - 2^1 */ square(t1,t0);
   1987 21r04r01      [10] 3665 	ld	hl,#_a
   198A 01r80r00      [10] 3666 	ld	bc,#_tx2
   198D C5            [11] 3667 	push	bc
   198E E5            [11] 3668 	push	hl
   198F CDr19r09      [17] 3669 	call	_ldr
   1992 F1            [10] 3670 	pop	af
   1993 F1            [10] 3671 	pop	af
   1994 21r24r01      [10] 3672 	ld	hl,#_b
   1997 01r80r00      [10] 3673 	ld	bc,#_tx2
   199A C5            [11] 3674 	push	bc
   199B E5            [11] 3675 	push	hl
   199C CDr19r09      [17] 3676 	call	_ldr
   199F F1            [10] 3677 	pop	af
   19A0 F1            [10] 3678 	pop	af
   19A1 CDr13r09      [17] 3679 	call	_modmul
   19A4 21rE3r00      [10] 3680 	ld	hl,#_t33
   19A7 E5            [11] 3681 	push	hl
   19A8 21rA1r00      [10] 3682 	ld	hl,#_tz2
   19AB E5            [11] 3683 	push	hl
   19AC CDr19r09      [17] 3684 	call	_ldr
   19AF F1            [10] 3685 	pop	af
   19B0 F1            [10] 3686 	pop	af
                           3687 ;ec25519.c:797: /* 2^42 - 2^2 */ square(t0,t1);
   19B1 21r04r01      [10] 3688 	ld	hl,#_a
   19B4 01rA1r00      [10] 3689 	ld	bc,#_tz2
   19B7 C5            [11] 3690 	push	bc
   19B8 E5            [11] 3691 	push	hl
   19B9 CDr19r09      [17] 3692 	call	_ldr
   19BC F1            [10] 3693 	pop	af
   19BD F1            [10] 3694 	pop	af
   19BE 21r24r01      [10] 3695 	ld	hl,#_b
   19C1 01rA1r00      [10] 3696 	ld	bc,#_tz2
   19C4 C5            [11] 3697 	push	bc
   19C5 E5            [11] 3698 	push	hl
   19C6 CDr19r09      [17] 3699 	call	_ldr
   19C9 F1            [10] 3700 	pop	af
   19CA F1            [10] 3701 	pop	af
   19CB CDr13r09      [17] 3702 	call	_modmul
   19CE 21rE3r00      [10] 3703 	ld	hl,#_t33
   19D1 E5            [11] 3704 	push	hl
   19D2 21r80r00      [10] 3705 	ld	hl,#_tx2
   19D5 E5            [11] 3706 	push	hl
   19D6 CDr19r09      [17] 3707 	call	_ldr
   19D9 F1            [10] 3708 	pop	af
   19DA F1            [10] 3709 	pop	af
                           3710 ;ec25519.c:798: /* 2^50 - 2^10 */ for (i = 2;i < 10;i += 2) { square(t1,t0); square(t0,t1); }
   19DB DD 36 FF 02   [19] 3711 	ld	-1 (ix),#0x02
   19DF                    3712 00111$:
   19DF 21r80r00      [10] 3713 	ld	hl,#_tx2
   19E2 E5            [11] 3714 	push	hl
   19E3 21r04r01      [10] 3715 	ld	hl,#_a
   19E6 E5            [11] 3716 	push	hl
   19E7 CDr19r09      [17] 3717 	call	_ldr
   19EA F1            [10] 3718 	pop	af
   19EB F1            [10] 3719 	pop	af
   19EC 21r24r01      [10] 3720 	ld	hl,#_b
   19EF 01r80r00      [10] 3721 	ld	bc,#_tx2
   19F2 C5            [11] 3722 	push	bc
   19F3 E5            [11] 3723 	push	hl
   19F4 CDr19r09      [17] 3724 	call	_ldr
   19F7 F1            [10] 3725 	pop	af
   19F8 F1            [10] 3726 	pop	af
   19F9 CDr13r09      [17] 3727 	call	_modmul
   19FC 21rE3r00      [10] 3728 	ld	hl,#_t33
   19FF E5            [11] 3729 	push	hl
   1A00 21rA1r00      [10] 3730 	ld	hl,#_tz2
   1A03 E5            [11] 3731 	push	hl
   1A04 CDr19r09      [17] 3732 	call	_ldr
   1A07 F1            [10] 3733 	pop	af
   1A08 F1            [10] 3734 	pop	af
   1A09 21r04r01      [10] 3735 	ld	hl,#_a
   1A0C 01rA1r00      [10] 3736 	ld	bc,#_tz2
   1A0F C5            [11] 3737 	push	bc
   1A10 E5            [11] 3738 	push	hl
   1A11 CDr19r09      [17] 3739 	call	_ldr
   1A14 F1            [10] 3740 	pop	af
   1A15 F1            [10] 3741 	pop	af
   1A16 21r24r01      [10] 3742 	ld	hl,#_b
   1A19 01rA1r00      [10] 3743 	ld	bc,#_tz2
   1A1C C5            [11] 3744 	push	bc
   1A1D E5            [11] 3745 	push	hl
   1A1E CDr19r09      [17] 3746 	call	_ldr
   1A21 F1            [10] 3747 	pop	af
   1A22 F1            [10] 3748 	pop	af
   1A23 CDr13r09      [17] 3749 	call	_modmul
   1A26 21rE3r00      [10] 3750 	ld	hl,#_t33
   1A29 E5            [11] 3751 	push	hl
   1A2A 21r80r00      [10] 3752 	ld	hl,#_tx2
   1A2D E5            [11] 3753 	push	hl
   1A2E CDr19r09      [17] 3754 	call	_ldr
   1A31 F1            [10] 3755 	pop	af
   1A32 F1            [10] 3756 	pop	af
   1A33 DD 34 FF      [23] 3757 	inc	-1 (ix)
   1A36 DD 34 FF      [23] 3758 	inc	-1 (ix)
   1A39 DD 7E FF      [19] 3759 	ld	a,-1 (ix)
   1A3C EE 80         [ 7] 3760 	xor	a, #0x80
   1A3E D6 8A         [ 7] 3761 	sub	a, #0x8A
   1A40 38 9D         [12] 3762 	jr	C,00111$
                           3763 ;ec25519.c:799: /* 2^50 - 2^0 */ mult(z2_50_0,t0,z2_10_0); // 56
   1A42 21r04r01      [10] 3764 	ld	hl,#_a
   1A45 01r80r00      [10] 3765 	ld	bc,#_tx2
   1A48 C5            [11] 3766 	push	bc
   1A49 E5            [11] 3767 	push	hl
   1A4A CDr19r09      [17] 3768 	call	_ldr
   1A4D F1            [10] 3769 	pop	af
   1A4E F1            [10] 3770 	pop	af
   1A4F 11rE4r01      [10] 3771 	ld	de,#_z2_10_0
   1A52 21r24r01      [10] 3772 	ld	hl,#_b
   1A55 D5            [11] 3773 	push	de
   1A56 E5            [11] 3774 	push	hl
   1A57 CDr19r09      [17] 3775 	call	_ldr
   1A5A F1            [10] 3776 	pop	af
   1A5B F1            [10] 3777 	pop	af
   1A5C CDr13r09      [17] 3778 	call	_modmul
   1A5F 21r24r02      [10] 3779 	ld	hl,#_z2_50_0
   1A62 01rE3r00      [10] 3780 	ld	bc,#_t33
   1A65 C5            [11] 3781 	push	bc
   1A66 E5            [11] 3782 	push	hl
   1A67 CDr19r09      [17] 3783 	call	_ldr
   1A6A F1            [10] 3784 	pop	af
   1A6B F1            [10] 3785 	pop	af
                           3786 ;ec25519.c:800: /* 2^51 - 2^1 */ square(t0,z2_50_0);
   1A6C 11r24r02      [10] 3787 	ld	de,#_z2_50_0
   1A6F 21r04r01      [10] 3788 	ld	hl,#_a
   1A72 D5            [11] 3789 	push	de
   1A73 E5            [11] 3790 	push	hl
   1A74 CDr19r09      [17] 3791 	call	_ldr
   1A77 F1            [10] 3792 	pop	af
   1A78 F1            [10] 3793 	pop	af
   1A79 11r24r02      [10] 3794 	ld	de,#_z2_50_0
   1A7C 21r24r01      [10] 3795 	ld	hl,#_b
   1A7F D5            [11] 3796 	push	de
   1A80 E5            [11] 3797 	push	hl
   1A81 CDr19r09      [17] 3798 	call	_ldr
   1A84 F1            [10] 3799 	pop	af
   1A85 F1            [10] 3800 	pop	af
   1A86 CDr13r09      [17] 3801 	call	_modmul
   1A89 21rE3r00      [10] 3802 	ld	hl,#_t33
   1A8C E5            [11] 3803 	push	hl
   1A8D 21r80r00      [10] 3804 	ld	hl,#_tx2
   1A90 E5            [11] 3805 	push	hl
   1A91 CDr19r09      [17] 3806 	call	_ldr
   1A94 F1            [10] 3807 	pop	af
   1A95 F1            [10] 3808 	pop	af
                           3809 ;ec25519.c:801: /* 2^52 - 2^2 */ square(t1,t0);
   1A96 21r04r01      [10] 3810 	ld	hl,#_a
   1A99 01r80r00      [10] 3811 	ld	bc,#_tx2
   1A9C C5            [11] 3812 	push	bc
   1A9D E5            [11] 3813 	push	hl
   1A9E CDr19r09      [17] 3814 	call	_ldr
   1AA1 F1            [10] 3815 	pop	af
   1AA2 F1            [10] 3816 	pop	af
   1AA3 21r24r01      [10] 3817 	ld	hl,#_b
   1AA6 01r80r00      [10] 3818 	ld	bc,#_tx2
   1AA9 C5            [11] 3819 	push	bc
   1AAA E5            [11] 3820 	push	hl
   1AAB CDr19r09      [17] 3821 	call	_ldr
   1AAE F1            [10] 3822 	pop	af
   1AAF F1            [10] 3823 	pop	af
   1AB0 CDr13r09      [17] 3824 	call	_modmul
   1AB3 21rE3r00      [10] 3825 	ld	hl,#_t33
   1AB6 E5            [11] 3826 	push	hl
   1AB7 21rA1r00      [10] 3827 	ld	hl,#_tz2
   1ABA E5            [11] 3828 	push	hl
   1ABB CDr19r09      [17] 3829 	call	_ldr
   1ABE F1            [10] 3830 	pop	af
   1ABF F1            [10] 3831 	pop	af
                           3832 ;ec25519.c:802: /* 2^100 - 2^50 */ for (i = 2;i < 50;i += 2) { square(t0,t1); square(t1,t0); }
   1AC0 DD 36 FF 02   [19] 3833 	ld	-1 (ix),#0x02
   1AC4                    3834 00113$:
   1AC4 21rA1r00      [10] 3835 	ld	hl,#_tz2
   1AC7 E5            [11] 3836 	push	hl
   1AC8 21r04r01      [10] 3837 	ld	hl,#_a
   1ACB E5            [11] 3838 	push	hl
   1ACC CDr19r09      [17] 3839 	call	_ldr
   1ACF F1            [10] 3840 	pop	af
   1AD0 F1            [10] 3841 	pop	af
   1AD1 21r24r01      [10] 3842 	ld	hl,#_b
   1AD4 01rA1r00      [10] 3843 	ld	bc,#_tz2
   1AD7 C5            [11] 3844 	push	bc
   1AD8 E5            [11] 3845 	push	hl
   1AD9 CDr19r09      [17] 3846 	call	_ldr
   1ADC F1            [10] 3847 	pop	af
   1ADD F1            [10] 3848 	pop	af
   1ADE CDr13r09      [17] 3849 	call	_modmul
   1AE1 21rE3r00      [10] 3850 	ld	hl,#_t33
   1AE4 E5            [11] 3851 	push	hl
   1AE5 21r80r00      [10] 3852 	ld	hl,#_tx2
   1AE8 E5            [11] 3853 	push	hl
   1AE9 CDr19r09      [17] 3854 	call	_ldr
   1AEC F1            [10] 3855 	pop	af
   1AED F1            [10] 3856 	pop	af
   1AEE 21r04r01      [10] 3857 	ld	hl,#_a
   1AF1 01r80r00      [10] 3858 	ld	bc,#_tx2
   1AF4 C5            [11] 3859 	push	bc
   1AF5 E5            [11] 3860 	push	hl
   1AF6 CDr19r09      [17] 3861 	call	_ldr
   1AF9 F1            [10] 3862 	pop	af
   1AFA F1            [10] 3863 	pop	af
   1AFB 21r24r01      [10] 3864 	ld	hl,#_b
   1AFE 01r80r00      [10] 3865 	ld	bc,#_tx2
   1B01 C5            [11] 3866 	push	bc
   1B02 E5            [11] 3867 	push	hl
   1B03 CDr19r09      [17] 3868 	call	_ldr
   1B06 F1            [10] 3869 	pop	af
   1B07 F1            [10] 3870 	pop	af
   1B08 CDr13r09      [17] 3871 	call	_modmul
   1B0B 21rE3r00      [10] 3872 	ld	hl,#_t33
   1B0E E5            [11] 3873 	push	hl
   1B0F 21rA1r00      [10] 3874 	ld	hl,#_tz2
   1B12 E5            [11] 3875 	push	hl
   1B13 CDr19r09      [17] 3876 	call	_ldr
   1B16 F1            [10] 3877 	pop	af
   1B17 F1            [10] 3878 	pop	af
   1B18 DD 34 FF      [23] 3879 	inc	-1 (ix)
   1B1B DD 34 FF      [23] 3880 	inc	-1 (ix)
   1B1E DD 7E FF      [19] 3881 	ld	a,-1 (ix)
   1B21 EE 80         [ 7] 3882 	xor	a, #0x80
   1B23 D6 B2         [ 7] 3883 	sub	a, #0xB2
   1B25 38 9D         [12] 3884 	jr	C,00113$
                           3885 ;ec25519.c:803: /* 2^100 - 2^0 */ mult(z2_100_0,t1,z2_50_0); // 107
   1B27 21r04r01      [10] 3886 	ld	hl,#_a
   1B2A 01rA1r00      [10] 3887 	ld	bc,#_tz2
   1B2D C5            [11] 3888 	push	bc
   1B2E E5            [11] 3889 	push	hl
   1B2F CDr19r09      [17] 3890 	call	_ldr
   1B32 F1            [10] 3891 	pop	af
   1B33 F1            [10] 3892 	pop	af
   1B34 11r24r02      [10] 3893 	ld	de,#_z2_50_0
   1B37 21r24r01      [10] 3894 	ld	hl,#_b
   1B3A D5            [11] 3895 	push	de
   1B3B E5            [11] 3896 	push	hl
   1B3C CDr19r09      [17] 3897 	call	_ldr
   1B3F F1            [10] 3898 	pop	af
   1B40 F1            [10] 3899 	pop	af
   1B41 CDr13r09      [17] 3900 	call	_modmul
   1B44 21r44r02      [10] 3901 	ld	hl,#_z2_100_0
   1B47 01rE3r00      [10] 3902 	ld	bc,#_t33
   1B4A C5            [11] 3903 	push	bc
   1B4B E5            [11] 3904 	push	hl
   1B4C CDr19r09      [17] 3905 	call	_ldr
   1B4F F1            [10] 3906 	pop	af
   1B50 F1            [10] 3907 	pop	af
                           3908 ;ec25519.c:804: /* 2^101 - 2^1 */ square(t1,z2_100_0);
   1B51 11r44r02      [10] 3909 	ld	de,#_z2_100_0
   1B54 21r04r01      [10] 3910 	ld	hl,#_a
   1B57 D5            [11] 3911 	push	de
   1B58 E5            [11] 3912 	push	hl
   1B59 CDr19r09      [17] 3913 	call	_ldr
   1B5C F1            [10] 3914 	pop	af
   1B5D F1            [10] 3915 	pop	af
   1B5E 11r44r02      [10] 3916 	ld	de,#_z2_100_0
   1B61 21r24r01      [10] 3917 	ld	hl,#_b
   1B64 D5            [11] 3918 	push	de
   1B65 E5            [11] 3919 	push	hl
   1B66 CDr19r09      [17] 3920 	call	_ldr
   1B69 F1            [10] 3921 	pop	af
   1B6A F1            [10] 3922 	pop	af
   1B6B CDr13r09      [17] 3923 	call	_modmul
   1B6E 21rE3r00      [10] 3924 	ld	hl,#_t33
   1B71 E5            [11] 3925 	push	hl
   1B72 21rA1r00      [10] 3926 	ld	hl,#_tz2
   1B75 E5            [11] 3927 	push	hl
   1B76 CDr19r09      [17] 3928 	call	_ldr
   1B79 F1            [10] 3929 	pop	af
   1B7A F1            [10] 3930 	pop	af
                           3931 ;ec25519.c:805: /* 2^102 - 2^2 */ square(t0,t1); // 109
   1B7B 21r04r01      [10] 3932 	ld	hl,#_a
   1B7E 01rA1r00      [10] 3933 	ld	bc,#_tz2
   1B81 C5            [11] 3934 	push	bc
   1B82 E5            [11] 3935 	push	hl
   1B83 CDr19r09      [17] 3936 	call	_ldr
   1B86 F1            [10] 3937 	pop	af
   1B87 F1            [10] 3938 	pop	af
   1B88 21r24r01      [10] 3939 	ld	hl,#_b
   1B8B 01rA1r00      [10] 3940 	ld	bc,#_tz2
   1B8E C5            [11] 3941 	push	bc
   1B8F E5            [11] 3942 	push	hl
   1B90 CDr19r09      [17] 3943 	call	_ldr
   1B93 F1            [10] 3944 	pop	af
   1B94 F1            [10] 3945 	pop	af
   1B95 CDr13r09      [17] 3946 	call	_modmul
   1B98 21rE3r00      [10] 3947 	ld	hl,#_t33
   1B9B E5            [11] 3948 	push	hl
   1B9C 21r80r00      [10] 3949 	ld	hl,#_tx2
   1B9F E5            [11] 3950 	push	hl
   1BA0 CDr19r09      [17] 3951 	call	_ldr
   1BA3 F1            [10] 3952 	pop	af
   1BA4 F1            [10] 3953 	pop	af
                           3954 ;ec25519.c:806: /* 2^200 - 2^100 */ for (i = 2;i < 100;i += 2) { square(t1,t0); square(t0,t1); }
   1BA5 DD 36 FF 02   [19] 3955 	ld	-1 (ix),#0x02
   1BA9                    3956 00115$:
   1BA9 21r80r00      [10] 3957 	ld	hl,#_tx2
   1BAC E5            [11] 3958 	push	hl
   1BAD 21r04r01      [10] 3959 	ld	hl,#_a
   1BB0 E5            [11] 3960 	push	hl
   1BB1 CDr19r09      [17] 3961 	call	_ldr
   1BB4 F1            [10] 3962 	pop	af
   1BB5 F1            [10] 3963 	pop	af
   1BB6 21r24r01      [10] 3964 	ld	hl,#_b
   1BB9 01r80r00      [10] 3965 	ld	bc,#_tx2
   1BBC C5            [11] 3966 	push	bc
   1BBD E5            [11] 3967 	push	hl
   1BBE CDr19r09      [17] 3968 	call	_ldr
   1BC1 F1            [10] 3969 	pop	af
   1BC2 F1            [10] 3970 	pop	af
   1BC3 CDr13r09      [17] 3971 	call	_modmul
   1BC6 21rE3r00      [10] 3972 	ld	hl,#_t33
   1BC9 E5            [11] 3973 	push	hl
   1BCA 21rA1r00      [10] 3974 	ld	hl,#_tz2
   1BCD E5            [11] 3975 	push	hl
   1BCE CDr19r09      [17] 3976 	call	_ldr
   1BD1 F1            [10] 3977 	pop	af
   1BD2 F1            [10] 3978 	pop	af
   1BD3 21r04r01      [10] 3979 	ld	hl,#_a
   1BD6 01rA1r00      [10] 3980 	ld	bc,#_tz2
   1BD9 C5            [11] 3981 	push	bc
   1BDA E5            [11] 3982 	push	hl
   1BDB CDr19r09      [17] 3983 	call	_ldr
   1BDE F1            [10] 3984 	pop	af
   1BDF F1            [10] 3985 	pop	af
   1BE0 21r24r01      [10] 3986 	ld	hl,#_b
   1BE3 01rA1r00      [10] 3987 	ld	bc,#_tz2
   1BE6 C5            [11] 3988 	push	bc
   1BE7 E5            [11] 3989 	push	hl
   1BE8 CDr19r09      [17] 3990 	call	_ldr
   1BEB F1            [10] 3991 	pop	af
   1BEC F1            [10] 3992 	pop	af
   1BED CDr13r09      [17] 3993 	call	_modmul
   1BF0 21rE3r00      [10] 3994 	ld	hl,#_t33
   1BF3 E5            [11] 3995 	push	hl
   1BF4 21r80r00      [10] 3996 	ld	hl,#_tx2
   1BF7 E5            [11] 3997 	push	hl
   1BF8 CDr19r09      [17] 3998 	call	_ldr
   1BFB F1            [10] 3999 	pop	af
   1BFC F1            [10] 4000 	pop	af
   1BFD DD 34 FF      [23] 4001 	inc	-1 (ix)
   1C00 DD 34 FF      [23] 4002 	inc	-1 (ix)
   1C03 DD 7E FF      [19] 4003 	ld	a,-1 (ix)
   1C06 EE 80         [ 7] 4004 	xor	a, #0x80
   1C08 D6 E4         [ 7] 4005 	sub	a, #0xE4
   1C0A 38 9D         [12] 4006 	jr	C,00115$
                           4007 ;ec25519.c:807: /* 2^200 - 2^0 */ mult(t1,t0,z2_100_0); // 208
   1C0C 21r04r01      [10] 4008 	ld	hl,#_a
   1C0F 01r80r00      [10] 4009 	ld	bc,#_tx2
   1C12 C5            [11] 4010 	push	bc
   1C13 E5            [11] 4011 	push	hl
   1C14 CDr19r09      [17] 4012 	call	_ldr
   1C17 F1            [10] 4013 	pop	af
   1C18 F1            [10] 4014 	pop	af
   1C19 11r44r02      [10] 4015 	ld	de,#_z2_100_0
   1C1C 21r24r01      [10] 4016 	ld	hl,#_b
   1C1F D5            [11] 4017 	push	de
   1C20 E5            [11] 4018 	push	hl
   1C21 CDr19r09      [17] 4019 	call	_ldr
   1C24 F1            [10] 4020 	pop	af
   1C25 F1            [10] 4021 	pop	af
   1C26 CDr13r09      [17] 4022 	call	_modmul
   1C29 21rE3r00      [10] 4023 	ld	hl,#_t33
   1C2C E5            [11] 4024 	push	hl
   1C2D 21rA1r00      [10] 4025 	ld	hl,#_tz2
   1C30 E5            [11] 4026 	push	hl
   1C31 CDr19r09      [17] 4027 	call	_ldr
   1C34 F1            [10] 4028 	pop	af
   1C35 F1            [10] 4029 	pop	af
                           4030 ;ec25519.c:808: /* 2^201 - 2^1 */ square(t0,t1);
   1C36 21r04r01      [10] 4031 	ld	hl,#_a
   1C39 01rA1r00      [10] 4032 	ld	bc,#_tz2
   1C3C C5            [11] 4033 	push	bc
   1C3D E5            [11] 4034 	push	hl
   1C3E CDr19r09      [17] 4035 	call	_ldr
   1C41 F1            [10] 4036 	pop	af
   1C42 F1            [10] 4037 	pop	af
   1C43 21r24r01      [10] 4038 	ld	hl,#_b
   1C46 01rA1r00      [10] 4039 	ld	bc,#_tz2
   1C49 C5            [11] 4040 	push	bc
   1C4A E5            [11] 4041 	push	hl
   1C4B CDr19r09      [17] 4042 	call	_ldr
   1C4E F1            [10] 4043 	pop	af
   1C4F F1            [10] 4044 	pop	af
   1C50 CDr13r09      [17] 4045 	call	_modmul
   1C53 21rE3r00      [10] 4046 	ld	hl,#_t33
   1C56 E5            [11] 4047 	push	hl
   1C57 21r80r00      [10] 4048 	ld	hl,#_tx2
   1C5A E5            [11] 4049 	push	hl
   1C5B CDr19r09      [17] 4050 	call	_ldr
   1C5E F1            [10] 4051 	pop	af
   1C5F F1            [10] 4052 	pop	af
                           4053 ;ec25519.c:809: /* 2^202 - 2^2 */ square(t1,t0);
   1C60 21r04r01      [10] 4054 	ld	hl,#_a
   1C63 01r80r00      [10] 4055 	ld	bc,#_tx2
   1C66 C5            [11] 4056 	push	bc
   1C67 E5            [11] 4057 	push	hl
   1C68 CDr19r09      [17] 4058 	call	_ldr
   1C6B F1            [10] 4059 	pop	af
   1C6C F1            [10] 4060 	pop	af
   1C6D 21r24r01      [10] 4061 	ld	hl,#_b
   1C70 01r80r00      [10] 4062 	ld	bc,#_tx2
   1C73 C5            [11] 4063 	push	bc
   1C74 E5            [11] 4064 	push	hl
   1C75 CDr19r09      [17] 4065 	call	_ldr
   1C78 F1            [10] 4066 	pop	af
   1C79 F1            [10] 4067 	pop	af
   1C7A CDr13r09      [17] 4068 	call	_modmul
   1C7D 21rE3r00      [10] 4069 	ld	hl,#_t33
   1C80 E5            [11] 4070 	push	hl
   1C81 21rA1r00      [10] 4071 	ld	hl,#_tz2
   1C84 E5            [11] 4072 	push	hl
   1C85 CDr19r09      [17] 4073 	call	_ldr
   1C88 F1            [10] 4074 	pop	af
   1C89 F1            [10] 4075 	pop	af
                           4076 ;ec25519.c:810: /* 2^250 - 2^50 */ for (i = 2;i < 50;i += 2) { square(t0,t1); square(t1,t0); }
   1C8A DD 36 FF 02   [19] 4077 	ld	-1 (ix),#0x02
   1C8E                    4078 00117$:
   1C8E 21rA1r00      [10] 4079 	ld	hl,#_tz2
   1C91 E5            [11] 4080 	push	hl
   1C92 21r04r01      [10] 4081 	ld	hl,#_a
   1C95 E5            [11] 4082 	push	hl
   1C96 CDr19r09      [17] 4083 	call	_ldr
   1C99 F1            [10] 4084 	pop	af
   1C9A F1            [10] 4085 	pop	af
   1C9B 21r24r01      [10] 4086 	ld	hl,#_b
   1C9E 01rA1r00      [10] 4087 	ld	bc,#_tz2
   1CA1 C5            [11] 4088 	push	bc
   1CA2 E5            [11] 4089 	push	hl
   1CA3 CDr19r09      [17] 4090 	call	_ldr
   1CA6 F1            [10] 4091 	pop	af
   1CA7 F1            [10] 4092 	pop	af
   1CA8 CDr13r09      [17] 4093 	call	_modmul
   1CAB 21rE3r00      [10] 4094 	ld	hl,#_t33
   1CAE E5            [11] 4095 	push	hl
   1CAF 21r80r00      [10] 4096 	ld	hl,#_tx2
   1CB2 E5            [11] 4097 	push	hl
   1CB3 CDr19r09      [17] 4098 	call	_ldr
   1CB6 F1            [10] 4099 	pop	af
   1CB7 F1            [10] 4100 	pop	af
   1CB8 21r04r01      [10] 4101 	ld	hl,#_a
   1CBB 01r80r00      [10] 4102 	ld	bc,#_tx2
   1CBE C5            [11] 4103 	push	bc
   1CBF E5            [11] 4104 	push	hl
   1CC0 CDr19r09      [17] 4105 	call	_ldr
   1CC3 F1            [10] 4106 	pop	af
   1CC4 F1            [10] 4107 	pop	af
   1CC5 21r24r01      [10] 4108 	ld	hl,#_b
   1CC8 01r80r00      [10] 4109 	ld	bc,#_tx2
   1CCB C5            [11] 4110 	push	bc
   1CCC E5            [11] 4111 	push	hl
   1CCD CDr19r09      [17] 4112 	call	_ldr
   1CD0 F1            [10] 4113 	pop	af
   1CD1 F1            [10] 4114 	pop	af
   1CD2 CDr13r09      [17] 4115 	call	_modmul
   1CD5 21rE3r00      [10] 4116 	ld	hl,#_t33
   1CD8 E5            [11] 4117 	push	hl
   1CD9 21rA1r00      [10] 4118 	ld	hl,#_tz2
   1CDC E5            [11] 4119 	push	hl
   1CDD CDr19r09      [17] 4120 	call	_ldr
   1CE0 F1            [10] 4121 	pop	af
   1CE1 F1            [10] 4122 	pop	af
   1CE2 DD 34 FF      [23] 4123 	inc	-1 (ix)
   1CE5 DD 34 FF      [23] 4124 	inc	-1 (ix)
   1CE8 DD 7E FF      [19] 4125 	ld	a,-1 (ix)
   1CEB EE 80         [ 7] 4126 	xor	a, #0x80
   1CED D6 B2         [ 7] 4127 	sub	a, #0xB2
   1CEF 38 9D         [12] 4128 	jr	C,00117$
                           4129 ;ec25519.c:811: /* 2^250 - 2^0 */ mult(t0,t1,z2_50_0); // 259
   1CF1 21r04r01      [10] 4130 	ld	hl,#_a
   1CF4 01rA1r00      [10] 4131 	ld	bc,#_tz2
   1CF7 C5            [11] 4132 	push	bc
   1CF8 E5            [11] 4133 	push	hl
   1CF9 CDr19r09      [17] 4134 	call	_ldr
   1CFC F1            [10] 4135 	pop	af
   1CFD F1            [10] 4136 	pop	af
   1CFE 11r24r02      [10] 4137 	ld	de,#_z2_50_0
   1D01 21r24r01      [10] 4138 	ld	hl,#_b
   1D04 D5            [11] 4139 	push	de
   1D05 E5            [11] 4140 	push	hl
   1D06 CDr19r09      [17] 4141 	call	_ldr
   1D09 F1            [10] 4142 	pop	af
   1D0A F1            [10] 4143 	pop	af
   1D0B CDr13r09      [17] 4144 	call	_modmul
   1D0E 21rE3r00      [10] 4145 	ld	hl,#_t33
   1D11 E5            [11] 4146 	push	hl
   1D12 21r80r00      [10] 4147 	ld	hl,#_tx2
   1D15 E5            [11] 4148 	push	hl
   1D16 CDr19r09      [17] 4149 	call	_ldr
   1D19 F1            [10] 4150 	pop	af
   1D1A F1            [10] 4151 	pop	af
                           4152 ;ec25519.c:812: /* 2^251 - 2^1 */ square(t1,t0);
   1D1B 21r04r01      [10] 4153 	ld	hl,#_a
   1D1E 01r80r00      [10] 4154 	ld	bc,#_tx2
   1D21 C5            [11] 4155 	push	bc
   1D22 E5            [11] 4156 	push	hl
   1D23 CDr19r09      [17] 4157 	call	_ldr
   1D26 F1            [10] 4158 	pop	af
   1D27 F1            [10] 4159 	pop	af
   1D28 21r24r01      [10] 4160 	ld	hl,#_b
   1D2B 01r80r00      [10] 4161 	ld	bc,#_tx2
   1D2E C5            [11] 4162 	push	bc
   1D2F E5            [11] 4163 	push	hl
   1D30 CDr19r09      [17] 4164 	call	_ldr
   1D33 F1            [10] 4165 	pop	af
   1D34 F1            [10] 4166 	pop	af
   1D35 CDr13r09      [17] 4167 	call	_modmul
   1D38 21rE3r00      [10] 4168 	ld	hl,#_t33
   1D3B E5            [11] 4169 	push	hl
   1D3C 21rA1r00      [10] 4170 	ld	hl,#_tz2
   1D3F E5            [11] 4171 	push	hl
   1D40 CDr19r09      [17] 4172 	call	_ldr
   1D43 F1            [10] 4173 	pop	af
   1D44 F1            [10] 4174 	pop	af
                           4175 ;ec25519.c:813: /* 2^252 - 2^2 */ square(t0,t1);
   1D45 21r04r01      [10] 4176 	ld	hl,#_a
   1D48 01rA1r00      [10] 4177 	ld	bc,#_tz2
   1D4B C5            [11] 4178 	push	bc
   1D4C E5            [11] 4179 	push	hl
   1D4D CDr19r09      [17] 4180 	call	_ldr
   1D50 F1            [10] 4181 	pop	af
   1D51 F1            [10] 4182 	pop	af
   1D52 21r24r01      [10] 4183 	ld	hl,#_b
   1D55 01rA1r00      [10] 4184 	ld	bc,#_tz2
   1D58 C5            [11] 4185 	push	bc
   1D59 E5            [11] 4186 	push	hl
   1D5A CDr19r09      [17] 4187 	call	_ldr
   1D5D F1            [10] 4188 	pop	af
   1D5E F1            [10] 4189 	pop	af
   1D5F CDr13r09      [17] 4190 	call	_modmul
   1D62 21rE3r00      [10] 4191 	ld	hl,#_t33
   1D65 E5            [11] 4192 	push	hl
   1D66 21r80r00      [10] 4193 	ld	hl,#_tx2
   1D69 E5            [11] 4194 	push	hl
   1D6A CDr19r09      [17] 4195 	call	_ldr
   1D6D F1            [10] 4196 	pop	af
   1D6E F1            [10] 4197 	pop	af
                           4198 ;ec25519.c:814: /* 2^253 - 2^3 */ square(t1,t0);
   1D6F 21r04r01      [10] 4199 	ld	hl,#_a
   1D72 01r80r00      [10] 4200 	ld	bc,#_tx2
   1D75 C5            [11] 4201 	push	bc
   1D76 E5            [11] 4202 	push	hl
   1D77 CDr19r09      [17] 4203 	call	_ldr
   1D7A F1            [10] 4204 	pop	af
   1D7B F1            [10] 4205 	pop	af
   1D7C 21r24r01      [10] 4206 	ld	hl,#_b
   1D7F 01r80r00      [10] 4207 	ld	bc,#_tx2
   1D82 C5            [11] 4208 	push	bc
   1D83 E5            [11] 4209 	push	hl
   1D84 CDr19r09      [17] 4210 	call	_ldr
   1D87 F1            [10] 4211 	pop	af
   1D88 F1            [10] 4212 	pop	af
   1D89 CDr13r09      [17] 4213 	call	_modmul
   1D8C 21rE3r00      [10] 4214 	ld	hl,#_t33
   1D8F E5            [11] 4215 	push	hl
   1D90 21rA1r00      [10] 4216 	ld	hl,#_tz2
   1D93 E5            [11] 4217 	push	hl
   1D94 CDr19r09      [17] 4218 	call	_ldr
   1D97 F1            [10] 4219 	pop	af
   1D98 F1            [10] 4220 	pop	af
                           4221 ;ec25519.c:815: /* 2^254 - 2^4 */ square(t0,t1);
   1D99 21r04r01      [10] 4222 	ld	hl,#_a
   1D9C 01rA1r00      [10] 4223 	ld	bc,#_tz2
   1D9F C5            [11] 4224 	push	bc
   1DA0 E5            [11] 4225 	push	hl
   1DA1 CDr19r09      [17] 4226 	call	_ldr
   1DA4 F1            [10] 4227 	pop	af
   1DA5 F1            [10] 4228 	pop	af
   1DA6 21r24r01      [10] 4229 	ld	hl,#_b
   1DA9 01rA1r00      [10] 4230 	ld	bc,#_tz2
   1DAC C5            [11] 4231 	push	bc
   1DAD E5            [11] 4232 	push	hl
   1DAE CDr19r09      [17] 4233 	call	_ldr
   1DB1 F1            [10] 4234 	pop	af
   1DB2 F1            [10] 4235 	pop	af
   1DB3 CDr13r09      [17] 4236 	call	_modmul
   1DB6 21rE3r00      [10] 4237 	ld	hl,#_t33
   1DB9 E5            [11] 4238 	push	hl
   1DBA 21r80r00      [10] 4239 	ld	hl,#_tx2
   1DBD E5            [11] 4240 	push	hl
   1DBE CDr19r09      [17] 4241 	call	_ldr
   1DC1 F1            [10] 4242 	pop	af
   1DC2 F1            [10] 4243 	pop	af
                           4244 ;ec25519.c:816: /* 2^255 - 2^5 */ square(t1,t0);
   1DC3 21r04r01      [10] 4245 	ld	hl,#_a
   1DC6 01r80r00      [10] 4246 	ld	bc,#_tx2
   1DC9 C5            [11] 4247 	push	bc
   1DCA E5            [11] 4248 	push	hl
   1DCB CDr19r09      [17] 4249 	call	_ldr
   1DCE F1            [10] 4250 	pop	af
   1DCF F1            [10] 4251 	pop	af
   1DD0 21r24r01      [10] 4252 	ld	hl,#_b
   1DD3 01r80r00      [10] 4253 	ld	bc,#_tx2
   1DD6 C5            [11] 4254 	push	bc
   1DD7 E5            [11] 4255 	push	hl
   1DD8 CDr19r09      [17] 4256 	call	_ldr
   1DDB F1            [10] 4257 	pop	af
   1DDC F1            [10] 4258 	pop	af
   1DDD CDr13r09      [17] 4259 	call	_modmul
   1DE0 21rE3r00      [10] 4260 	ld	hl,#_t33
   1DE3 E5            [11] 4261 	push	hl
   1DE4 21rA1r00      [10] 4262 	ld	hl,#_tz2
   1DE7 E5            [11] 4263 	push	hl
   1DE8 CDr19r09      [17] 4264 	call	_ldr
   1DEB F1            [10] 4265 	pop	af
   1DEC F1            [10] 4266 	pop	af
                           4267 ;ec25519.c:817: /* 2^255 - 21 */ mult(out,t1,z11);
   1DED 21r04r01      [10] 4268 	ld	hl,#_a
   1DF0 01rA1r00      [10] 4269 	ld	bc,#_tz2
   1DF3 C5            [11] 4270 	push	bc
   1DF4 E5            [11] 4271 	push	hl
   1DF5 CDr19r09      [17] 4272 	call	_ldr
   1DF8 F1            [10] 4273 	pop	af
   1DF9 F1            [10] 4274 	pop	af
   1DFA 11rA4r01      [10] 4275 	ld	de,#_z11
   1DFD 21r24r01      [10] 4276 	ld	hl,#_b
   1E00 D5            [11] 4277 	push	de
   1E01 E5            [11] 4278 	push	hl
   1E02 CDr19r09      [17] 4279 	call	_ldr
   1E05 F1            [10] 4280 	pop	af
   1E06 F1            [10] 4281 	pop	af
   1E07 CDr13r09      [17] 4282 	call	_modmul
   1E0A 21rE3r00      [10] 4283 	ld	hl,#_t33
   1E0D E5            [11] 4284 	push	hl
   1E0E DD 6E 04      [19] 4285 	ld	l,4 (ix)
   1E11 DD 66 05      [19] 4286 	ld	h,5 (ix)
   1E14 E5            [11] 4287 	push	hl
   1E15 CDr19r09      [17] 4288 	call	_ldr
   1E18 F1            [10] 4289 	pop	af
   1E19 F1            [10] 4290 	pop	af
   1E1A 33            [ 6] 4291 	inc	sp
   1E1B DD E1         [14] 4292 	pop	ix
   1E1D C9            [10] 4293 	ret
   1E1E                    4294 _recip_end::
                           4295 	.area _CODE
                           4296 	.area _INITIALIZER
                           4297 	.area _CABS (ABS)
